ASxxxx Linker V03.00 + NoICE + sdld,  page 1.
Hexadecimal  [32-Bits]

Area                                    Addr        Size        Decimal Bytes (Attributes)
--------------------------------        ----        ----        ------- ----- ------------
.  .ABS.                            00000000    00000000 =           0. bytes (ABS,CON)

      Value  Global                              Global Defined In Module
      -----  --------------------------------   ------------------------
     00000000  .__.ABS.                           
     00000000  _rRAMG                             
     00000000  l__BASE                         
     00000000  l__BSS                          
     00000000  l__CABS                         
     00000000  l__CODE_0                       
     00000000  l__CRASH_HEADER                 
     00000000  l__CRASH_SCRATCH                
     00000000  l__DABS                         
     00000000  l__EHL_TRAMPOLINE               
     00000000  l__HEADER                       
     00000000  l__HEADER_LCD                   
     00000000  l__HEADER_SIO                   
     00000000  l__HEADER_TIMER                 
     00000000  l__HEAP                         
     00000000  l__HRAM                         
     00000000  l__LIT                          
     00000000  s__CABS                         
     00000000  s__CRASH_HEADER                 
     00000000  s__CRASH_HEADER0                
     00000000  s__CRASH_HEADER1                
     00000000  s__CRASH_SCRATCH                
     00000000  s__CRASH_SCRATCH2               
     00000000  s__DABS                         
     00000000  s__EHL_TRAMPOLINE               
     00000000  s__EHL_TRAMPOLINE0              
     00000000  s__HEADER                       
     00000000  s__HEADER0                      
     00000000  s__HEADER1                      
     00000000  s__HEADER10                     
     00000000  s__HEADER11                     
     00000000  s__HEADER2                      
     00000000  s__HEADER3                      
     00000000  s__HEADER4                      
     00000000  s__HEADER5                      
     00000000  s__HEADER6                      
     00000000  s__HEADER7                      
     00000000  s__HEADER8                      
     00000000  s__HEADER9                      
     00000000  s__HEADER_LCD                   
     00000000  s__HEADER_LCD0                  
     00000000  s__HEADER_SIO                   
     00000000  s__HEADER_SIO0                  
     00000000  s__HEADER_TIMER                 
     00000000  s__HEADER_TIMER0                
     00000000  s__HEADERa                      
     00000000  s__HEADERb                      
     00000000  s__HEADERc                      
     00000000  s__HEADERd                      
     00000000  s__HEADERe                      
ASxxxx Linker V03.00 + NoICE + sdld,  page 2.
Hexadecimal  [32-Bits]

Area                                    Addr        Size        Decimal Bytes (Attributes)
--------------------------------        ----        ----        ------- ----- ------------
.  .ABS.                            00000000    00000000 =           0. bytes (ABS,CON)

      Value  Global                              Global Defined In Module
      -----  --------------------------------   ------------------------
     00000000  s__HEADERf                      
     00000000  s__HRAM                         
     00000000  s__HRAM12                       
     00000001  ___bank_VM_GBPRINTER               vm_gbprinter
     00000001  ___bank_VM_SGB                     vm_sgb
     00000001  ___bank_bg_coralmaze_tilemap_att   bg_coralmaze_tilemap_attr
     00000001  b_do_load_palette                  data_manager
     00000001  b_load_background                  data_manager
     00000001  b_load_bkg_tileset                 data_manager
     00000001  b_load_bounds                      data_manager
     00000001  b_load_emote                       data_manager
     00000001  b_load_init                        data_manager
     00000001  b_load_player                      data_manager
     00000001  b_load_scene                       data_manager
     00000001  b_load_sprite                      data_manager
     00000001  b_remove_LCD_ISRs                  interrupts
     00000001  b_ui_draw_frame                    ui
     00000001  b_ui_draw_text_buffer_char         ui
     00000001  b_ui_init                          ui
     00000001  b_ui_load_tiles                    ui
     00000001  b_ui_run_menu                      ui
     00000001  b_ui_run_modal                     ui
     00000001  b_ui_set_start_tile                ui
     00000001  b_vm_print_detect                  vm_gbprinter
     00000001  b_vm_print_overlay                 vm_gbprinter
     00000001  l__GSFINAL                      
     00000001  l__HEADER0                      
     00000001  l__HEADER11                     
     00000001  l__HEADER9                      
     00000001  l__HEADERa                      
     00000001  l__HEADERb                      
     00000001  l__HEADERd                      
     00000001  l__HEADERe                      
     00000002  ___bank_actor_1_update             actor_1_update
     00000002  ___bank_bg_blueridgestarcave_til   bg_blueridgestarcave_tilemap
     00000002  ___bank_bg_coralmaze_tilemap       bg_coralmaze_tilemap
     00000002  ___bank_bg_knrcandjunepresents_t   bg_knrcandjunepresents_tiles
     00000002  l__HEADER5                      
     00000002  l__HEADERc                      
     00000002  l__HEADERf                      
     00000003  ___bank_bg_blueridgestarcave_til   bg_blueridgestarcave_tilemap
     00000003  ___bank_bg_pyramidview_tilemap_a   bg_pyramidview_tilemap_attr
     00000003  ___bank_scene_37_collisions        scene_37_collisions
     00000003  b_camera_init                      camera
     00000003  b_camera_reset                     camera
     00000003  l__HEADER8                      
     00000003  l__HEADER_LCD0                  
     00000003  l__HRAM12                       
     00000004  ___bank_ACTOR                      actor
     00000004  ___bank_bootstrap_script           
     00000004  ___bank_scene_31_collisions        scene_31_collisions
ASxxxx Linker V03.00 + NoICE + sdld,  page 3.
Hexadecimal  [32-Bits]

Area                                    Addr        Size        Decimal Bytes (Attributes)
--------------------------------        ----        ----        ------- ----- ------------
.  .ABS.                            00000000    00000000 =           0. bytes (ABS,CON)

      Value  Global                              Global Defined In Module
      -----  --------------------------------   ------------------------
     00000004  b_activate_actor                   actor
     00000004  b_activate_actors_in_col           actor
     00000004  b_activate_actors_in_row           actor
     00000004  b_actor_at_tile                    actor
     00000004  b_actor_get_frame_offset           actor
     00000004  b_actor_in_front_of_player         actor
     00000004  b_actor_overlapping_bb             actor
     00000004  b_actor_overlapping_player         actor
     00000004  b_actor_set_anim_idle              actor
     00000004  b_actor_set_anim_moving            actor
     00000004  b_actor_set_dir                    actor
     00000004  b_actor_set_frame_offset           actor
     00000004  b_actor_set_frames                 actor
     00000004  b_actors_handle_player_collision   actor
     00000004  b_actors_init                      actor
     00000004  b_check_collision_in_direction     actor
     00000004  b_deactivate_actor                 actor
     00000004  b_platform_init                    platform
     00000004  b_platform_update                  platform
     00000004  b_player_init                      actor
     00000004  l__CRASH_HEADER1                
     00000004  l__HEADER_SIO0                  
     00000004  l__HEADER_TIMER0                
     00000005  ___bank_VM_ACTOR                   vm_actor
     00000005  ___bank_bg_ending_tileset          bg_ending_tileset
     00000005  ___bank_bg_forestmaintest_tilema   bg_forestmaintest_tilemap
     00000005  ___bank_bg_forestmaintest_tilema   bg_forestmaintest_tilemap_at
     00000005  ___bank_spritesheet_none           spritesheet_none
     00000005  b_vm_actor_activate                vm_actor
     00000005  b_vm_actor_deactivate              vm_actor
     00000005  b_vm_actor_emote                   vm_actor
     00000005  b_vm_actor_get_angle               vm_actor
     00000005  b_vm_actor_get_anim_frame          vm_actor
     00000005  b_vm_actor_get_dir                 vm_actor
     00000005  b_vm_actor_get_pos                 vm_actor
     00000005  b_vm_actor_move_cancel             vm_actor
     00000005  b_vm_actor_move_to                 vm_actor
     00000005  b_vm_actor_replace_tile            vm_actor
     00000005  b_vm_actor_set_anim                vm_actor
     00000005  b_vm_actor_set_anim_frame          vm_actor
     00000005  b_vm_actor_set_anim_set            vm_actor
     00000005  b_vm_actor_set_anim_tick           vm_actor
     00000005  b_vm_actor_set_bounds              vm_actor
     00000005  b_vm_actor_set_dir                 vm_actor
     00000005  b_vm_actor_set_flags               vm_actor
     00000005  b_vm_actor_set_move_speed          vm_actor
     00000005  b_vm_actor_set_pos                 vm_actor
     00000005  b_vm_actor_set_spritesheet         vm_actor
     00000005  b_vm_actor_set_spritesheet_by_re   vm_actor
     00000005  b_vm_actor_terminate_update        vm_actor
     00000005  l__CRASH_HEADER0                
ASxxxx Linker V03.00 + NoICE + sdld,  page 4.
Hexadecimal  [32-Bits]

Area                                    Addr        Size        Decimal Bytes (Attributes)
--------------------------------        ----        ----        ------- ----- ------------
.  .ABS.                            00000000    00000000 =           0. bytes (ABS,CON)

      Value  Global                              Global Defined In Module
      -----  --------------------------------   ------------------------
     00000005  l__HEADER1                      
     00000006  ___bank_VM_MAIN                    vm
     00000006  ___bank_bg_coralstart_tilemap_at   bg_coralstart_tilemap_attr
     00000006  ___bank_font_gbs_mono              font_gbs_mono
     00000006  ___bank_scene_0_init               scene_0_init
     00000006  ___bank_scene_47_collisions        scene_47_collisions
     00000006  ___bank_trigger_5_interact         trigger_5_interact
     00000006  b_script_detach_hthread            vm
     00000006  b_script_execute                   vm
     00000006  b_script_runner_init               vm
     00000006  b_script_terminate                 vm
     00000006  b_vm_call                          vm
     00000006  b_vm_call_far                      vm
     00000006  b_vm_get_indirect                  vm
     00000006  b_vm_get_int16                     vm
     00000006  b_vm_get_int8                      vm
     00000006  b_vm_get_tlocal                    vm
     00000006  b_vm_get_uint8                     vm
     00000006  b_vm_idle                          vm
     00000006  b_vm_if                            vm
     00000006  b_vm_if_const                      vm
     00000006  b_vm_init_rng                      vm
     00000006  b_vm_invoke                        vm
     00000006  b_vm_join                          vm
     00000006  b_vm_jump                          vm
     00000006  b_vm_lock                          vm
     00000006  b_vm_loop                          vm
     00000006  b_vm_memcpy                        vm
     00000006  b_vm_memset                        vm
     00000006  b_vm_poll_loaded                   vm
     00000006  b_vm_pop                           vm
     00000006  b_vm_push                          vm
     00000006  b_vm_push_reference                vm
     00000006  b_vm_push_value                    vm
     00000006  b_vm_push_value_ind                vm
     00000006  b_vm_raise                         vm
     00000006  b_vm_rand                          vm
     00000006  b_vm_reserve                       vm
     00000006  b_vm_ret                           vm
     00000006  b_vm_ret_far                       vm
     00000006  b_vm_set                           vm
     00000006  b_vm_set_const                     vm
     00000006  b_vm_set_const_int16               vm
     00000006  b_vm_set_const_int8                vm
     00000006  b_vm_set_indirect                  vm
     00000006  b_vm_set_int16                     vm
     00000006  b_vm_set_int8                      vm
     00000006  b_vm_set_uint8                     vm
     00000006  b_vm_terminate                     vm
     00000006  b_vm_test_terminate                vm
     00000006  b_vm_unlock                        vm
ASxxxx Linker V03.00 + NoICE + sdld,  page 5.
Hexadecimal  [32-Bits]

Area                                    Addr        Size        Decimal Bytes (Attributes)
--------------------------------        ----        ----        ------- ----- ------------
.  .ABS.                            00000000    00000000 =           0. bytes (ABS,CON)

      Value  Global                              Global Defined In Module
      -----  --------------------------------   ------------------------
     00000006  b_wait_frames                      vm
     00000006  l__HEADER7                      
     00000007  ___bank_VM_SCENE                   vm_scene
     00000007  ___bank_bg_coralstart_tilemap      bg_coralstart_tilemap
     00000007  ___bank_bg_coraltree_tileset       bg_coraltree_tileset
     00000007  ___bank_bg_forestmaintest_tilese   bg_forestmaintest_tileset
     00000007  ___bank_bg_pyramidtop_tileset      bg_pyramidtop_tileset
     00000007  ___bank_scene_36_collisions        scene_36_collisions
     00000007  ___bank_trigger_4_interact         trigger_4_interact
     00000007  b_vm_scene_pop                     vm_scene
     00000007  b_vm_scene_pop_all                 vm_scene
     00000007  b_vm_scene_push                    vm_scene
     00000007  b_vm_scene_stack_reset             vm_scene
     00000007  l__HEADER2                      
     00000008  ___bank_bg_coralvillage_tilemap_   bg_coralvillage_tilemap_attr
     00000008  ___bank_bg_journalcactus_tileset   bg_journalcactus_tileset
     00000008  ___bank_bg_journalplant_tileset    bg_journalplant_tileset
     00000008  ___bank_bg_journalsomeguys_tiles   bg_journalsomeguys_tileset
     00000008  ___bank_bg_journaltrap_tileset     bg_journaltrap_tileset
     00000008  ___bank_bg_mountain_entrance_til   bg_mountain_entrance_tileset
     00000008  ___bank_scene_34_sprites           scene_34_sprites
     00000008  l__HEADER3                      
     00000009  ___bank_VM_GAMEBOY                 vm_gameboy
     00000009  ___bank_bg_ambercave               bg_ambercave
     00000009  ___bank_bg_coralmaze_tileset       bg_coralmaze_tileset
     00000009  ___bank_bg_journalnecklace_tiles   bg_journalnecklace_tileset
     00000009  ___bank_bg_journalpoker_tileset    bg_journalpoker_tileset
     00000009  ___bank_bg_journalswerve_tileset   bg_journalswerve_tileset
     00000009  ___bank_bg_starclearingnew_tiles   bg_starclearingnew_tileset
     00000009  b_vm_context_prepare               vm_gameboy
     00000009  b_vm_fade                          vm_gameboy
     00000009  b_vm_get_tile_xy                   vm_gameboy
     00000009  b_vm_input_attach                  vm_gameboy
     00000009  b_vm_input_detach                  vm_gameboy
     00000009  b_vm_input_get                     vm_gameboy
     00000009  b_vm_input_wait                    vm_gameboy
     00000009  b_vm_load_tiles                    vm_gameboy
     00000009  b_vm_load_tileset                  vm_gameboy
     00000009  b_vm_poll                          vm_gameboy
     00000009  b_vm_replace_tile                  vm_gameboy
     00000009  b_vm_replace_tile_xy               vm_gameboy
     00000009  b_vm_rumble                        vm_gameboy
     00000009  b_vm_set_sprite_mode               vm_gameboy
     00000009  b_vm_set_sprites_visible           vm_gameboy
     00000009  b_vm_timer_prepare                 vm_gameboy
     00000009  b_vm_timer_reset                   vm_gameboy
     00000009  b_vm_timer_set                     vm_gameboy
     00000009  b_vm_timer_stop                    vm_gameboy
     0000000A  ___bank_bg_forestentrance_tilese   bg_forestentrance_tileset
     0000000A  ___bank_bg_forestnautilus_tilese   bg_forestnautilus_tileset
     0000000A  ___bank_bg_forestsplit_tileset     bg_forestsplit_tileset
ASxxxx Linker V03.00 + NoICE + sdld,  page 6.
Hexadecimal  [32-Bits]

Area                                    Addr        Size        Decimal Bytes (Attributes)
--------------------------------        ----        ----        ------- ----- ------------
.  .ABS.                            00000000    00000000 =           0. bytes (ABS,CON)

      Value  Global                              Global Defined In Module
      -----  --------------------------------   ------------------------
     0000000A  ___bank_bg_journalglass_tileset    bg_journalglass_tileset
     0000000A  ___bank_bg_journalskull_tileset    bg_journalskull_tileset
     0000000A  ___bank_bg_journascoop_tileset     bg_journascoop_tileset
     0000000A  ___bank_scene_21_sprites           scene_21_sprites
     0000000B  ___bank_bg_coralstart_tileset      bg_coralstart_tileset
     0000000B  ___bank_bg_journaldrum_tileset     bg_journaldrum_tileset
     0000000B  ___bank_bg_journalrocket_tileset   bg_journalrocket_tileset
     0000000B  ___bank_bg_penguinrocxk_tileset    bg_penguinrocxk_tileset
     0000000B  ___bank_bg_starclearingnew_tilem   bg_starclearingnew_tilemap_a
     0000000B  ___bank_scene_30_triggers          scene_30_triggers
     0000000B  ___bank_sprite_premenu_tileset     sprite_premenu_tileset
     0000000C  ___bank_bg_desertfork_tileset      bg_desertfork_tileset
     0000000C  ___bank_bg_journalclueless_tiles   bg_journalclueless_tileset
     0000000C  ___bank_bg_journalsnail_tileset    bg_journalsnail_tileset
     0000000C  ___bank_bg_journalwalkie_tileset   bg_journalwalkie_tileset
     0000000C  ___bank_bg_starclearingnew_tilem   bg_starclearingnew_tilemap
     0000000C  ___bank_scene_13_init              scene_13_init
     0000000C  ___bank_scene_32_collisions        scene_32_collisions
     0000000C  ___bank_trigger_6_interact         trigger_6_interact
     0000000D  ___bank_bg_blueridgecaveentrance   bg_blueridgecaveentrance
     0000000D  ___bank_bg_blueridgecaveentrance   bg_blueridgecaveentrance_til
     0000000D  ___bank_bg_journallazy_tileset     bg_journallazy_tileset
     0000000D  ___bank_bg_opendesert_tilemap      bg_opendesert_tilemap
     0000000D  ___bank_bg_opendesert_tilemap_at   bg_opendesert_tilemap_attr
     0000000D  ___bank_bg_opendesert_tileset      bg_opendesert_tileset
     0000000D  ___bank_bg_pondtest_tileset        bg_pondtest_tileset
     0000000D  ___bank_scene_13_collisions        scene_13_collisions
     0000000D  ___bank_trigger_0_interact         trigger_0_interact
     0000000E  ___bank_VM_UI                      vm_ui
     0000000E  ___bank_bg_blueridgestarcave_til   bg_blueridgestarcave_tileset
     0000000E  ___bank_bg_coralvillage_tileset    bg_coralvillage_tileset
     0000000E  ___bank_bg_gamelogo_tileset        bg_gamelogo_tileset
     0000000E  ___bank_scene_13_actors            scene_13_actors
     0000000E  b_adventure_init                   adventure
     0000000E  b_adventure_update                 adventure
     0000000E  b_projectile_launch                projectiles
     0000000E  b_projectiles_init                 projectiles
     0000000E  b_scroll_init                      scroll
     0000000E  b_scroll_repaint                   scroll
     0000000E  b_scroll_reset                     scroll
     0000000E  b_scroll_update                    scroll
     0000000E  b_shmup_init                       shmup
     0000000E  b_shmup_update                     shmup
     0000000E  b_topdown_init                     topdown
     0000000E  b_topdown_update                   topdown
     0000000E  b_vm_choice                        vm_ui
     0000000E  b_vm_display_text                  vm_ui
     0000000E  b_vm_overlay_clear                 vm_ui
     0000000E  b_vm_overlay_move_to               vm_ui
     0000000E  b_vm_overlay_scroll                vm_ui
     0000000E  b_vm_overlay_set_map               vm_ui
ASxxxx Linker V03.00 + NoICE + sdld,  page 7.
Hexadecimal  [32-Bits]

Area                                    Addr        Size        Decimal Bytes (Attributes)
--------------------------------        ----        ----        ------- ----- ------------
.  .ABS.                            00000000    00000000 =           0. bytes (ABS,CON)

      Value  Global                              Global Defined In Module
      -----  --------------------------------   ------------------------
     0000000E  b_vm_overlay_set_scroll            vm_ui
     0000000E  b_vm_overlay_set_submap            vm_ui
     0000000E  b_vm_overlay_set_submap_ex         vm_ui
     0000000E  b_vm_overlay_setpos                vm_ui
     0000000E  b_vm_overlay_show                  vm_ui
     0000000E  b_vm_overlay_wait                  vm_ui
     0000000E  b_vm_set_font                      vm_ui
     0000000E  b_vm_set_text_sound                vm_ui
     0000000E  b_vm_switch_text_layer             vm_ui
     0000000F  ___bank_bg_blueridgemountaintop2   bg_blueridgemountaintop2_til
     0000000F  ___bank_bg_blueridgemountaintop_   bg_blueridgemountaintop_tile
     0000000F  ___bank_bg_blueridgewalk_tilemap   bg_blueridgewalk_tilemap_att
     0000000F  ___bank_bg_cgmgsj_tileset          bg_cgmgsj_tileset
     0000000F  ___bank_bg_desertoasis_tileset     bg_desertoasis_tileset
     0000000F  ___bank_bg_deserttower_tileset     bg_deserttower_tileset
     0000000F  ___bank_bg_penguinrocxk_tilemap    bg_penguinrocxk_tilemap
     0000000F  ___bank_bg_penguinrocxk_tilemap_   bg_penguinrocxk_tilemap_attr
     0000000F  ___bank_bg_pyramidview_tileset     bg_pyramidview_tileset
     0000000F  ___bank_scene_30_sprites           scene_30_sprites
     0000000F  ___bank_scene_38_collisions        scene_38_collisions
     00000010  ___bank_actor_26_interact          actor_26_interact
     00000010  ___bank_bg_ambercave_tilemap       bg_ambercave_tilemap
     00000010  ___bank_bg_ambercave_tilemap_att   bg_ambercave_tilemap_attr
     00000010  ___bank_bg_blueridgewalk_tileset   bg_blueridgewalk_tileset
     00000010  ___bank_bg_coralvillage_tilemap    bg_coralvillage_tilemap
     00000010  ___bank_bg_coralwell_tileset       bg_coralwell_tileset
     00000010  ___bank_bg_desertfork_tilemap_at   bg_desertfork_tilemap_attr
     00000010  ___bank_bg_forestpond_tileset      bg_forestpond_tileset
     00000010  ___bank_bg_mountain_entrance_til   bg_mountain_entrance_tilemap
     00000010  ___bank_scene_30_collisions        scene_30_collisions
     00000010  ___bank_scene_42_collisions        scene_42_collisions
     00000010  ___bank_scene_49_collisions        scene_49_collisions
     00000010  ___bank_sprite_cute_small_guy_sh   sprite_cute_small_guy_sheet_
     00000010  b_parallax_init                    parallax
     00000011  ___bank_bg_blueridgewalk_tilemap   bg_blueridgewalk_tilemap
     00000011  ___bank_bg_coralslime_tileset      bg_coralslime_tileset
     00000011  ___bank_bg_desert_entry_tileset    bg_desert_entry_tileset
     00000011  ___bank_bg_forestentrance_tilema   bg_forestentrance_tilemap
     00000011  ___bank_bg_forestentrance_tilema   bg_forestentrance_tilemap_at
     00000011  ___bank_bg_testpara_tilemap        bg_testpara_tilemap
     00000011  ___bank_bg_testpara_tilemap_attr   bg_testpara_tilemap_attr
     00000011  ___bank_bg_testpara_tileset        bg_testpara_tileset
     00000011  ___bank_scene_32_sprites           scene_32_sprites
     00000011  ___bank_scene_43_collisions        scene_43_collisions
     00000011  ___bank_scene_45_collisions        scene_45_collisions
     00000011  ___bank_scene_5_collisions         scene_5_collisions
     00000011  ___bank_sprite_digging_animation   sprite_digging_animation_sh_
     00000011  ___bank_sprite_fishing_tileset     sprite_fishing_tileset
     00000011  b_core_reset                       core
     00000011  b_core_run                         core
     00000011  b_data_clear                       load_save
ASxxxx Linker V03.00 + NoICE + sdld,  page 8.
Hexadecimal  [32-Bits]

Area                                    Addr        Size        Decimal Bytes (Attributes)
--------------------------------        ----        ----        ------- ----- ------------
.  .ABS.                            00000000    00000000 =           0. bytes (ABS,CON)

      Value  Global                              Global Defined In Module
      -----  --------------------------------   ------------------------
     00000011  b_data_init                        load_save
     00000011  b_data_load                        load_save
     00000011  b_data_peek                        load_save
     00000011  b_data_save                        load_save
     00000011  b_gbprinter_detect                 gbprinter
     00000011  b_gbprinter_print_overlay          gbprinter
     00000011  b_trigger_activate_at              trigger
     00000011  b_trigger_activate_at_intersecti   trigger
     00000011  b_trigger_at_intersection          trigger
     00000011  b_trigger_at_tile                  trigger
     00000011  b_trigger_interact                 trigger
     00000011  b_trigger_reset                    trigger
     00000011  l__EHL_TRAMPOLINE0              
     00000012  ___bank_VM_PALETTE                 vm_palette
     00000012  ___bank_VM_SIO                     vm_sio
     00000012  ___bank_bg_blueridgecaveentrance   bg_blueridgecaveentrance_til
     00000012  ___bank_bg_blueridgecaveentrance   bg_blueridgecaveentrance_til
     00000012  ___bank_bg_blueridgemountaintop2   bg_blueridgemountaintop2_til
     00000012  ___bank_bg_blueridgemountaintop_   bg_blueridgemountaintop_tile
     00000012  ___bank_bg_blueridgemountaintop_   bg_blueridgemountaintop_tile
     00000012  ___bank_bg_coraltree_tilemap       bg_coraltree_tilemap
     00000012  ___bank_bg_coraltree_tilemap_att   bg_coraltree_tilemap_attr
     00000012  ___bank_bg_coraltunnel_tilemap     bg_coraltunnel_tilemap
     00000012  ___bank_bg_desertfork_tilemap      bg_desertfork_tilemap
     00000012  ___bank_bg_forestpond_tilemap      bg_forestpond_tilemap
     00000012  ___bank_bg_forestsplit_tilemap     bg_forestsplit_tilemap
     00000012  ___bank_scene_31_triggers          scene_31_triggers
     00000012  ___bank_scene_33_collisions        scene_33_collisions
     00000012  ___bank_scene_34_collisions        scene_34_collisions
     00000012  ___bank_scene_35_sprites           scene_35_sprites
     00000012  ___bank_scene_39_collisions        scene_39_collisions
     00000012  ___bank_scene_40_collisions        scene_40_collisions
     00000012  ___bank_scene_46_collisions        scene_46_collisions
     00000012  ___bank_scene_4_collisions         scene_4_collisions
     00000012  b___HandleCrash_banked             
     00000012  b_pointnclick_init                 pointnclick
     00000012  b_pointnclick_update               pointnclick
     00000012  b_vm_load_palette                  vm_palette
     00000012  b_vm_sio_exchange                  vm_sio
     00000012  b_vm_sio_set_mode                  vm_sio
     00000013  ___bank_VM_CAMERA                  vm_camera
     00000013  ___bank_bg_blueridgerockroom_til   bg_blueridgerockroom_tilemap
     00000013  ___bank_bg_blueridgerockroom_til   bg_blueridgerockroom_tilemap
     00000013  ___bank_bg_cgmgsj_tilemap          bg_cgmgsj_tilemap
     00000013  ___bank_bg_coralslime_tilemap      bg_coralslime_tilemap
     00000013  ___bank_bg_coraltunnel_tileset     bg_coraltunnel_tileset
     00000013  ___bank_bg_coralwell_tilemap       bg_coralwell_tilemap
     00000013  ___bank_bg_desert_entry_tilemap    bg_desert_entry_tilemap
     00000013  ___bank_bg_desert_entry_tilemap_   bg_desert_entry_tilemap_attr
     00000013  ___bank_bg_desertoasis_tilemap     bg_desertoasis_tilemap
     00000013  ___bank_bg_deserttower_tilemap     bg_deserttower_tilemap
ASxxxx Linker V03.00 + NoICE + sdld,  page 9.
Hexadecimal  [32-Bits]

Area                                    Addr        Size        Decimal Bytes (Attributes)
--------------------------------        ----        ----        ------- ----- ------------
.  .ABS.                            00000000    00000000 =           0. bytes (ABS,CON)

      Value  Global                              Global Defined In Module
      -----  --------------------------------   ------------------------
     00000013  ___bank_bg_ending_tilemap          bg_ending_tilemap
     00000013  ___bank_bg_forestnautilus_tilema   bg_forestnautilus_tilemap
     00000013  ___bank_bg_forestnautilus_tilema   bg_forestnautilus_tilemap_at
     00000013  ___bank_bg_gamelogo_tilemap        bg_gamelogo_tilemap
     00000013  ___bank_bg_journalcactus_tilemap   bg_journalcactus_tilemap
     00000013  ___bank_bg_journalclueless_tilem   bg_journalclueless_tilemap
     00000013  ___bank_bg_journaldrum_tilemap     bg_journaldrum_tilemap
     00000013  ___bank_bg_journalglass_tilemap    bg_journalglass_tilemap
     00000013  ___bank_bg_journallazy_tilemap     bg_journallazy_tilemap
     00000013  ___bank_bg_journalnecklace_tilem   bg_journalnecklace_tilemap
     00000013  ___bank_bg_journalplant_tilemap    bg_journalplant_tilemap
     00000013  ___bank_bg_journalpoker_tilemap    bg_journalpoker_tilemap
     00000013  ___bank_bg_journalrocket_tilemap   bg_journalrocket_tilemap
     00000013  ___bank_bg_pyramidview_tilemap     bg_pyramidview_tilemap
     00000013  ___bank_scene_21_triggers          scene_21_triggers
     00000013  ___bank_scene_36_sprites           scene_36_sprites
     00000013  ___bank_scene_48_collisions        scene_48_collisions
     00000013  ___bank_scene_50_collisions        scene_50_collisions
     00000013  ___bank_scene_51_collisions        scene_51_collisions
     00000013  ___bank_scene_52_collisions        scene_52_collisions
     00000013  ___bank_scene_53_collisions        scene_53_collisions
     00000013  ___bank_sprite_cute_small_guy_sh   sprite_cute_small_guy_sheet
     00000013  ___bank_trigger_7_interact         trigger_7_interact
     00000013  ___bank_trigger_8_interact         trigger_8_interact
     00000013  b_camera_shake_frames              vm_camera
     00000013  b_fade_applypalettechange          fade_manager
     00000013  b_fade_in                          fade_manager
     00000013  b_fade_in_modal                    fade_manager
     00000013  b_fade_init                        fade_manager
     00000013  b_fade_out                         fade_manager
     00000013  b_fade_out_modal                   fade_manager
     00000013  b_fade_setspeed                    fade_manager
     00000013  b_fade_update                      fade_manager
     00000013  b_set_sgb_border                   sgb_border
     00000013  b_vm_camera_move_to                vm_camera
     00000013  b_vm_camera_set_pos                vm_camera
     00000014  ___bank_VM_MATH                    vm_math
     00000014  ___bank_VM_MUSIC                   vm_music
     00000014  ___bank_bg_journalskull_tilemap    bg_journalskull_tilemap
     00000014  ___bank_bg_journalsnail_tilemap    bg_journalsnail_tilemap
     00000014  ___bank_bg_journalsomeguys_tilem   bg_journalsomeguys_tilemap
     00000014  ___bank_bg_journalswerve_tilemap   bg_journalswerve_tilemap
     00000014  ___bank_bg_journaltrap_tilemap     bg_journaltrap_tilemap
     00000014  ___bank_bg_journalwalkie_tilemap   bg_journalwalkie_tilemap
     00000014  ___bank_bg_journascoop_tilemap     bg_journascoop_tilemap
     00000014  ___bank_bg_knrcandjunepresents_t   bg_knrcandjunepresents_tilem
     00000014  ___bank_bg_pondtest_tilemap        bg_pondtest_tilemap
     00000014  ___bank_bg_pyramidtop_tilemap      bg_pyramidtop_tilemap
     00000014  ___bank_scene_0_collisions         scene_0_collisions
     00000014  ___bank_scene_10_collisions        scene_10_collisions
     00000014  ___bank_scene_11_collisions        scene_11_collisions
ASxxxx Linker V03.00 + NoICE + sdld,  page 10.
Hexadecimal  [32-Bits]

Area                                    Addr        Size        Decimal Bytes (Attributes)
--------------------------------        ----        ----        ------- ----- ------------
.  .ABS.                            00000000    00000000 =           0. bytes (ABS,CON)

      Value  Global                              Global Defined In Module
      -----  --------------------------------   ------------------------
     00000014  ___bank_scene_12_collisions        scene_12_collisions
     00000014  ___bank_scene_14_collisions        scene_14_collisions
     00000014  ___bank_scene_15_collisions        scene_15_collisions
     00000014  ___bank_scene_16_collisions        scene_16_collisions
     00000014  ___bank_scene_17_collisions        scene_17_collisions
     00000014  ___bank_scene_18_collisions        scene_18_collisions
     00000014  ___bank_scene_19_collisions        scene_19_collisions
     00000014  ___bank_scene_20_collisions        scene_20_collisions
     00000014  ___bank_scene_21_actors            scene_21_actors
     00000014  ___bank_scene_21_collisions        scene_21_collisions
     00000014  ___bank_scene_22_collisions        scene_22_collisions
     00000014  ___bank_scene_23_collisions        scene_23_collisions
     00000014  ___bank_scene_24_collisions        scene_24_collisions
     00000014  ___bank_scene_25_collisions        scene_25_collisions
     00000014  ___bank_scene_28_collisions        scene_28_collisions
     00000014  ___bank_scene_29_collisions        scene_29_collisions
     00000014  ___bank_scene_2_collisions         scene_2_collisions
     00000014  ___bank_scene_35_collisions        scene_35_collisions
     00000014  ___bank_scene_3_collisions         scene_3_collisions
     00000014  ___bank_scene_41_collisions        scene_41_collisions
     00000014  ___bank_scene_44_collisions        scene_44_collisions
     00000014  ___bank_scene_54_collisions        scene_54_collisions
     00000014  ___bank_scene_6_collisions         scene_6_collisions
     00000014  ___bank_scene_7_collisions         scene_7_collisions
     00000014  ___bank_scene_8_collisions         scene_8_collisions
     00000014  ___bank_scene_9_collisions         scene_9_collisions
     00000014  ___bank_sprite_digging_animation   sprite_digging_animation_sh
     00000014  ___bank_sprite_premenu_tilemap     sprite_premenu_tilemap
     00000014  ___bank_trigger_14_interact        trigger_14_interact
     00000014  ___bank_trigger_16_interact        trigger_16_interact
     00000014  ___bank_trigger_17_interact        trigger_17_interact
     00000014  ___bank_trigger_18_interact        trigger_18_interact
     00000014  b_vm_cos_scale                     vm_math
     00000014  b_vm_music_mute                    vm_music
     00000014  b_vm_music_play                    vm_music
     00000014  b_vm_music_routine                 vm_music
     00000014  b_vm_music_setpos                  vm_music
     00000014  b_vm_music_stop                    vm_music
     00000014  b_vm_sfx_play                      vm_music
     00000014  b_vm_sin_scale                     vm_math
     00000014  b_vm_sound_mastervol               vm_music
     00000015  ___bank_VM_LOAD_SAVE               vm_load_save
     00000015  ___bank_VM_PROJECTILE              vm_projectiles
     00000015  ___bank_VM_RTC                     vm_rtc
     00000015  ___bank_actor_10_interact          actor_10_interact
     00000015  ___bank_actor_12_interact          actor_12_interact
     00000015  ___bank_actor_13_interact          actor_13_interact
     00000015  ___bank_actor_14_interact          actor_14_interact
     00000015  ___bank_actor_15_interact          actor_15_interact
     00000015  ___bank_actor_17_interact          actor_17_interact
     00000015  ___bank_actor_18_interact          actor_18_interact
ASxxxx Linker V03.00 + NoICE + sdld,  page 11.
Hexadecimal  [32-Bits]

Area                                    Addr        Size        Decimal Bytes (Attributes)
--------------------------------        ----        ----        ------- ----- ------------
.  .ABS.                            00000000    00000000 =           0. bytes (ABS,CON)

      Value  Global                              Global Defined In Module
      -----  --------------------------------   ------------------------
     00000015  ___bank_actor_19_interact          actor_19_interact
     00000015  ___bank_actor_1_interact           actor_1_interact
     00000015  ___bank_actor_20_interact          actor_20_interact
     00000015  ___bank_actor_21_interact          actor_21_interact
     00000015  ___bank_actor_22_interact          actor_22_interact
     00000015  ___bank_actor_23_interact          actor_23_interact
     00000015  ___bank_actor_24_interact          actor_24_interact
     00000015  ___bank_actor_25_interact          actor_25_interact
     00000015  ___bank_actor_27_interact          actor_27_interact
     00000015  ___bank_actor_28_interact          actor_28_interact
     00000015  ___bank_actor_29_interact          actor_29_interact
     00000015  ___bank_actor_2_update             actor_2_update
     00000015  ___bank_actor_30_interact          actor_30_interact
     00000015  ___bank_actor_31_interact          actor_31_interact
     00000015  ___bank_actor_32_interact          actor_32_interact
     00000015  ___bank_actor_33_interact          actor_33_interact
     00000015  ___bank_actor_3_update             actor_3_update
     00000015  ___bank_actor_4_update             actor_4_update
     00000015  ___bank_actor_5_update             actor_5_update
     00000015  ___bank_bg_ambercave_tileset       bg_ambercave_tileset
     00000015  ___bank_bg_blueridgerockroom_til   bg_blueridgerockroom_tileset
     00000015  ___bank_frame_image                frame_image
     00000015  ___bank_scene_35_actors            scene_35_actors
     00000015  ___bank_scene_38_sprites           scene_38_sprites
     00000015  ___bank_scene_8_actors             scene_8_actors
     00000015  ___bank_script_input_0             script_input_0
     00000015  ___bank_script_input_1             script_input_1
     00000015  ___bank_sprite_actor_animated      sprite_actor_animated
     00000015  ___bank_sprite_actor_animated_ti   sprite_actor_animated_tilese
     00000015  ___bank_sprite_cursor_sheet_tile   sprite_cursor_sheet_tileset
     00000015  ___bank_sprite_fishing             sprite_fishing
     00000015  ___bank_sprite_floortreasure_til   sprite_floortreasure_tileset
     00000015  ___bank_trigger_10_interact        trigger_10_interact
     00000015  ___bank_trigger_11_interact        trigger_11_interact
     00000015  ___bank_trigger_13_interact        trigger_13_interact
     00000015  ___bank_trigger_15_interact        trigger_15_interact
     00000015  ___bank_trigger_19_interact        trigger_19_interact
     00000015  ___bank_trigger_22_interact        trigger_22_interact
     00000015  ___bank_trigger_23_interact        trigger_23_interact
     00000015  ___bank_trigger_24_interact        trigger_24_interact
     00000015  ___bank_trigger_25_interact        trigger_25_interact
     00000015  ___bank_trigger_26_interact        trigger_26_interact
     00000015  ___bank_trigger_27_interact        trigger_27_interact
     00000015  ___bank_trigger_28_interact        trigger_28_interact
     00000015  ___bank_trigger_29_interact        trigger_29_interact
     00000015  ___bank_trigger_32_interact        trigger_32_interact
     00000015  ___bank_trigger_33_interact        trigger_33_interact
     00000015  ___bank_trigger_34_interact        trigger_34_interact
     00000015  ___bank_trigger_35_interact        trigger_35_interact
     00000015  ___bank_trigger_36_interact        trigger_36_interact
     00000015  ___bank_trigger_37_interact        trigger_37_interact
ASxxxx Linker V03.00 + NoICE + sdld,  page 12.
Hexadecimal  [32-Bits]

Area                                    Addr        Size        Decimal Bytes (Attributes)
--------------------------------        ----        ----        ------- ----- ------------
.  .ABS.                            00000000    00000000 =           0. bytes (ABS,CON)

      Value  Global                              Global Defined In Module
      -----  --------------------------------   ------------------------
     00000015  ___bank_trigger_38_interact        trigger_38_interact
     00000015  ___bank_trigger_39_interact        trigger_39_interact
     00000015  ___bank_trigger_42_interact        trigger_42_interact
     00000015  ___bank_trigger_43_interact        trigger_43_interact
     00000015  ___bank_trigger_44_interact        trigger_44_interact
     00000015  ___bank_trigger_45_interact        trigger_45_interact
     00000015  ___bank_trigger_46_interact        trigger_46_interact
     00000015  ___bank_trigger_73_interact        trigger_73_interact
     00000015  ___bank_trigger_9_interact         trigger_9_interact
     00000015  b_erase_flash                      
     00000015  b_itoa_fmt                         vm_ui_a
     00000015  b_music_events_poll                music_manager
     00000015  b_music_init_driver                music_manager
     00000015  b_music_init_events                music_manager
     00000015  b_save_sram_banks                  
     00000015  b_vm_projectile_launch             vm_projectiles
     00000015  b_vm_projectile_load_type          vm_projectiles
     00000015  b_vm_rtc_get                       vm_rtc
     00000015  b_vm_rtc_latch                     vm_rtc
     00000015  b_vm_rtc_set                       vm_rtc
     00000015  b_vm_rtc_start                     vm_rtc
     00000015  b_vm_save_clear                    vm_load_save
     00000015  b_vm_save_peek                     vm_load_save
     00000016  ___bank_actor_10_update            actor_10_update
     00000016  ___bank_actor_11_interact          actor_11_interact
     00000016  ___bank_actor_11_update            actor_11_update
     00000016  ___bank_actor_12_update            actor_12_update
     00000016  ___bank_actor_13_update            actor_13_update
     00000016  ___bank_actor_14_update            actor_14_update
     00000016  ___bank_actor_15_update            actor_15_update
     00000016  ___bank_actor_16_interact          actor_16_interact
     00000016  ___bank_actor_16_update            actor_16_update
     00000016  ___bank_actor_17_update            actor_17_update
     00000016  ___bank_actor_18_update            actor_18_update
     00000016  ___bank_actor_20_update            actor_20_update
     00000016  ___bank_actor_21_update            actor_21_update
     00000016  ___bank_actor_22_update            actor_22_update
     00000016  ___bank_actor_23_update            actor_23_update
     00000016  ___bank_actor_24_update            actor_24_update
     00000016  ___bank_actor_25_update            actor_25_update
     00000016  ___bank_actor_32_update            actor_32_update
     00000016  ___bank_actor_33_update            actor_33_update
     00000016  ___bank_bg_blueridgemountaintop    bg_blueridgemountaintop
     00000016  ___bank_bg_blueridgemountaintop2   bg_blueridgemountaintop2
     00000016  ___bank_bg_blueridgerockroom       bg_blueridgerockroom
     00000016  ___bank_bg_blueridgestarcave       bg_blueridgestarcave
     00000016  ___bank_bg_blueridgewalk           bg_blueridgewalk
     00000016  ___bank_bg_cgmgsj                  bg_cgmgsj
     00000016  ___bank_bg_coralmaze               bg_coralmaze
     00000016  ___bank_bg_coralslime              bg_coralslime
     00000016  ___bank_bg_coralstart              bg_coralstart
ASxxxx Linker V03.00 + NoICE + sdld,  page 13.
Hexadecimal  [32-Bits]

Area                                    Addr        Size        Decimal Bytes (Attributes)
--------------------------------        ----        ----        ------- ----- ------------
.  .ABS.                            00000000    00000000 =           0. bytes (ABS,CON)

      Value  Global                              Global Defined In Module
      -----  --------------------------------   ------------------------
     00000016  ___bank_bg_coraltree               bg_coraltree
     00000016  ___bank_bg_coraltunnel             bg_coraltunnel
     00000016  ___bank_bg_coralvillage            bg_coralvillage
     00000016  ___bank_bg_coralwell               bg_coralwell
     00000016  ___bank_bg_desert_entry            bg_desert_entry
     00000016  ___bank_bg_desertfork              bg_desertfork
     00000016  ___bank_bg_desertoasis             bg_desertoasis
     00000016  ___bank_bg_deserttower             bg_deserttower
     00000016  ___bank_bg_ending                  bg_ending
     00000016  ___bank_bg_forestentrance          bg_forestentrance
     00000016  ___bank_bg_forestmaintest          bg_forestmaintest
     00000016  ___bank_bg_forestnautilus          bg_forestnautilus
     00000016  ___bank_bg_forestpond              bg_forestpond
     00000016  ___bank_bg_forestsplit             bg_forestsplit
     00000016  ___bank_bg_gamelogo                bg_gamelogo
     00000016  ___bank_bg_journalcactus           bg_journalcactus
     00000016  ___bank_bg_journalclueless         bg_journalclueless
     00000016  ___bank_bg_journaldrum             bg_journaldrum
     00000016  ___bank_bg_journalglass            bg_journalglass
     00000016  ___bank_bg_journallazy             bg_journallazy
     00000016  ___bank_bg_journalnecklace         bg_journalnecklace
     00000016  ___bank_bg_journalplant            bg_journalplant
     00000016  ___bank_bg_journalpoker            bg_journalpoker
     00000016  ___bank_bg_journalrocket           bg_journalrocket
     00000016  ___bank_bg_journalskull            bg_journalskull
     00000016  ___bank_bg_journalsnail            bg_journalsnail
     00000016  ___bank_bg_journalsomeguys         bg_journalsomeguys
     00000016  ___bank_bg_journalswerve           bg_journalswerve
     00000016  ___bank_bg_journaltrap             bg_journaltrap
     00000016  ___bank_bg_journalwalkie           bg_journalwalkie
     00000016  ___bank_bg_journascoop             bg_journascoop
     00000016  ___bank_bg_knrcandjunepresents     bg_knrcandjunepresents
     00000016  ___bank_bg_mountain_entrance       bg_mountain_entrance
     00000016  ___bank_bg_opendesert              bg_opendesert
     00000016  ___bank_bg_penguinrocxk            bg_penguinrocxk
     00000016  ___bank_bg_pondtest                bg_pondtest
     00000016  ___bank_bg_pyramidtop              bg_pyramidtop
     00000016  ___bank_bg_pyramidview             bg_pyramidview
     00000016  ___bank_bg_starclearingnew         bg_starclearingnew
     00000016  ___bank_bg_testpara                bg_testpara
     00000016  ___bank_cursor_image               cursor_image
     00000016  ___bank_emote_love                 emote_love
     00000016  ___bank_emote_pause                emote_pause
     00000016  ___bank_emote_question             emote_question
     00000016  ___bank_emote_shock                emote_shock
     00000016  ___bank_palette_0                  palette_0
     00000016  ___bank_palette_1                  palette_1
     00000016  ___bank_scene_0                    scene_0
     00000016  ___bank_scene_0_triggers           scene_0_triggers
     00000016  ___bank_scene_10                   scene_10
     00000016  ___bank_scene_10_init              scene_10_init
ASxxxx Linker V03.00 + NoICE + sdld,  page 14.
Hexadecimal  [32-Bits]

Area                                    Addr        Size        Decimal Bytes (Attributes)
--------------------------------        ----        ----        ------- ----- ------------
.  .ABS.                            00000000    00000000 =           0. bytes (ABS,CON)

      Value  Global                              Global Defined In Module
      -----  --------------------------------   ------------------------
     00000016  ___bank_scene_10_triggers          scene_10_triggers
     00000016  ___bank_scene_11                   scene_11
     00000016  ___bank_scene_11_init              scene_11_init
     00000016  ___bank_scene_11_triggers          scene_11_triggers
     00000016  ___bank_scene_12                   scene_12
     00000016  ___bank_scene_12_init              scene_12_init
     00000016  ___bank_scene_12_triggers          scene_12_triggers
     00000016  ___bank_scene_13                   scene_13
     00000016  ___bank_scene_13_triggers          scene_13_triggers
     00000016  ___bank_scene_14                   scene_14
     00000016  ___bank_scene_14_init              scene_14_init
     00000016  ___bank_scene_14_triggers          scene_14_triggers
     00000016  ___bank_scene_15                   scene_15
     00000016  ___bank_scene_15_init              scene_15_init
     00000016  ___bank_scene_15_triggers          scene_15_triggers
     00000016  ___bank_scene_16                   scene_16
     00000016  ___bank_scene_16_init              scene_16_init
     00000016  ___bank_scene_16_triggers          scene_16_triggers
     00000016  ___bank_scene_17                   scene_17
     00000016  ___bank_scene_17_init              scene_17_init
     00000016  ___bank_scene_17_triggers          scene_17_triggers
     00000016  ___bank_scene_18                   scene_18
     00000016  ___bank_scene_18_init              scene_18_init
     00000016  ___bank_scene_18_triggers          scene_18_triggers
     00000016  ___bank_scene_19                   scene_19
     00000016  ___bank_scene_19_init              scene_19_init
     00000016  ___bank_scene_19_triggers          scene_19_triggers
     00000016  ___bank_scene_2                    scene_2
     00000016  ___bank_scene_20                   scene_20
     00000016  ___bank_scene_20_init              scene_20_init
     00000016  ___bank_scene_20_triggers          scene_20_triggers
     00000016  ___bank_scene_21                   scene_21
     00000016  ___bank_scene_21_init              scene_21_init
     00000016  ___bank_scene_22                   scene_22
     00000016  ___bank_scene_22_init              scene_22_init
     00000016  ___bank_scene_22_triggers          scene_22_triggers
     00000016  ___bank_scene_23                   scene_23
     00000016  ___bank_scene_23_init              scene_23_init
     00000016  ___bank_scene_23_triggers          scene_23_triggers
     00000016  ___bank_scene_24                   scene_24
     00000016  ___bank_scene_24_init              scene_24_init
     00000016  ___bank_scene_24_triggers          scene_24_triggers
     00000016  ___bank_scene_25                   scene_25
     00000016  ___bank_scene_25_init              scene_25_init
     00000016  ___bank_scene_25_triggers          scene_25_triggers
     00000016  ___bank_scene_28                   scene_28
     00000016  ___bank_scene_28_init              scene_28_init
     00000016  ___bank_scene_29                   scene_29
     00000016  ___bank_scene_29_init              scene_29_init
     00000016  ___bank_scene_2_init               scene_2_init
     00000016  ___bank_scene_2_triggers           scene_2_triggers
ASxxxx Linker V03.00 + NoICE + sdld,  page 15.
Hexadecimal  [32-Bits]

Area                                    Addr        Size        Decimal Bytes (Attributes)
--------------------------------        ----        ----        ------- ----- ------------
.  .ABS.                            00000000    00000000 =           0. bytes (ABS,CON)

      Value  Global                              Global Defined In Module
      -----  --------------------------------   ------------------------
     00000016  ___bank_scene_3                    scene_3
     00000016  ___bank_scene_30                   scene_30
     00000016  ___bank_scene_30_actors            scene_30_actors
     00000016  ___bank_scene_30_init              scene_30_init
     00000016  ___bank_scene_31                   scene_31
     00000016  ___bank_scene_31_init              scene_31_init
     00000016  ___bank_scene_32                   scene_32
     00000016  ___bank_scene_32_actors            scene_32_actors
     00000016  ___bank_scene_32_init              scene_32_init
     00000016  ___bank_scene_32_triggers          scene_32_triggers
     00000016  ___bank_scene_33                   scene_33
     00000016  ___bank_scene_33_init              scene_33_init
     00000016  ___bank_scene_33_triggers          scene_33_triggers
     00000016  ___bank_scene_34                   scene_34
     00000016  ___bank_scene_34_actors            scene_34_actors
     00000016  ___bank_scene_34_init              scene_34_init
     00000016  ___bank_scene_34_triggers          scene_34_triggers
     00000016  ___bank_scene_35                   scene_35
     00000016  ___bank_scene_35_init              scene_35_init
     00000016  ___bank_scene_35_triggers          scene_35_triggers
     00000016  ___bank_scene_36                   scene_36
     00000016  ___bank_scene_36_actors            scene_36_actors
     00000016  ___bank_scene_36_init              scene_36_init
     00000016  ___bank_scene_36_triggers          scene_36_triggers
     00000016  ___bank_scene_37                   scene_37
     00000016  ___bank_scene_37_actors            scene_37_actors
     00000016  ___bank_scene_37_init              scene_37_init
     00000016  ___bank_scene_37_triggers          scene_37_triggers
     00000016  ___bank_scene_38                   scene_38
     00000016  ___bank_scene_38_actors            scene_38_actors
     00000016  ___bank_scene_38_init              scene_38_init
     00000016  ___bank_scene_38_triggers          scene_38_triggers
     00000016  ___bank_scene_39                   scene_39
     00000016  ___bank_scene_39_init              scene_39_init
     00000016  ___bank_scene_39_triggers          scene_39_triggers
     00000016  ___bank_scene_3_init               scene_3_init
     00000016  ___bank_scene_4                    scene_4
     00000016  ___bank_scene_40                   scene_40
     00000016  ___bank_scene_40_actors            scene_40_actors
     00000016  ___bank_scene_40_init              scene_40_init
     00000016  ___bank_scene_40_sprites           scene_40_sprites
     00000016  ___bank_scene_40_triggers          scene_40_triggers
     00000016  ___bank_scene_41                   scene_41
     00000016  ___bank_scene_41_init              scene_41_init
     00000016  ___bank_scene_41_triggers          scene_41_triggers
     00000016  ___bank_scene_42                   scene_42
     00000016  ___bank_scene_42_actors            scene_42_actors
     00000016  ___bank_scene_42_init              scene_42_init
     00000016  ___bank_scene_42_sprites           scene_42_sprites
     00000016  ___bank_scene_42_triggers          scene_42_triggers
     00000016  ___bank_scene_43                   scene_43
ASxxxx Linker V03.00 + NoICE + sdld,  page 16.
Hexadecimal  [32-Bits]

Area                                    Addr        Size        Decimal Bytes (Attributes)
--------------------------------        ----        ----        ------- ----- ------------
.  .ABS.                            00000000    00000000 =           0. bytes (ABS,CON)

      Value  Global                              Global Defined In Module
      -----  --------------------------------   ------------------------
     00000016  ___bank_scene_43_init              scene_43_init
     00000016  ___bank_scene_43_triggers          scene_43_triggers
     00000016  ___bank_scene_44                   scene_44
     00000016  ___bank_scene_44_actors            scene_44_actors
     00000016  ___bank_scene_44_init              scene_44_init
     00000016  ___bank_scene_44_triggers          scene_44_triggers
     00000016  ___bank_scene_45                   scene_45
     00000016  ___bank_scene_45_init              scene_45_init
     00000016  ___bank_scene_45_triggers          scene_45_triggers
     00000016  ___bank_scene_46                   scene_46
     00000016  ___bank_scene_46_init              scene_46_init
     00000016  ___bank_scene_46_triggers          scene_46_triggers
     00000016  ___bank_scene_47                   scene_47
     00000016  ___bank_scene_47_actors            scene_47_actors
     00000016  ___bank_scene_47_init              scene_47_init
     00000016  ___bank_scene_47_sprites           scene_47_sprites
     00000016  ___bank_scene_47_triggers          scene_47_triggers
     00000016  ___bank_scene_48                   scene_48
     00000016  ___bank_scene_48_actors            scene_48_actors
     00000016  ___bank_scene_48_init              scene_48_init
     00000016  ___bank_scene_48_triggers          scene_48_triggers
     00000016  ___bank_scene_49                   scene_49
     00000016  ___bank_scene_49_actors            scene_49_actors
     00000016  ___bank_scene_49_init              scene_49_init
     00000016  ___bank_scene_49_sprites           scene_49_sprites
     00000016  ___bank_scene_49_triggers          scene_49_triggers
     00000016  ___bank_scene_4_init               scene_4_init
     00000016  ___bank_scene_4_triggers           scene_4_triggers
     00000016  ___bank_scene_5                    scene_5
     00000016  ___bank_scene_50                   scene_50
     00000016  ___bank_scene_50_actors            scene_50_actors
     00000016  ___bank_scene_50_init              scene_50_init
     00000016  ___bank_scene_50_sprites           scene_50_sprites
     00000016  ___bank_scene_50_triggers          scene_50_triggers
     00000016  ___bank_scene_51                   scene_51
     00000016  ___bank_scene_51_init              scene_51_init
     00000016  ___bank_scene_51_triggers          scene_51_triggers
     00000016  ___bank_scene_52                   scene_52
     00000016  ___bank_scene_52_init              scene_52_init
     00000016  ___bank_scene_52_triggers          scene_52_triggers
     00000016  ___bank_scene_53                   scene_53
     00000016  ___bank_scene_53_init              scene_53_init
     00000016  ___bank_scene_53_triggers          scene_53_triggers
     00000016  ___bank_scene_54                   scene_54
     00000016  ___bank_scene_54_actors            scene_54_actors
     00000016  ___bank_scene_54_init              scene_54_init
     00000016  ___bank_scene_54_sprites           scene_54_sprites
     00000016  ___bank_scene_54_triggers          scene_54_triggers
     00000016  ___bank_scene_5_init               scene_5_init
     00000016  ___bank_scene_5_triggers           scene_5_triggers
     00000016  ___bank_scene_6                    scene_6
ASxxxx Linker V03.00 + NoICE + sdld,  page 17.
Hexadecimal  [32-Bits]

Area                                    Addr        Size        Decimal Bytes (Attributes)
--------------------------------        ----        ----        ------- ----- ------------
.  .ABS.                            00000000    00000000 =           0. bytes (ABS,CON)

      Value  Global                              Global Defined In Module
      -----  --------------------------------   ------------------------
     00000016  ___bank_scene_6_init               scene_6_init
     00000016  ___bank_scene_7                    scene_7
     00000016  ___bank_scene_7_actors             scene_7_actors
     00000016  ___bank_scene_7_init               scene_7_init
     00000016  ___bank_scene_7_sprites            scene_7_sprites
     00000016  ___bank_scene_7_triggers           scene_7_triggers
     00000016  ___bank_scene_8                    scene_8
     00000016  ___bank_scene_8_init               scene_8_init
     00000016  ___bank_scene_8_triggers           scene_8_triggers
     00000016  ___bank_scene_9                    scene_9
     00000016  ___bank_scene_9_init               scene_9_init
     00000016  ___bank_scene_9_triggers           scene_9_triggers
     00000016  ___bank_script_engine_init         
     00000016  ___bank_script_input_2             script_input_2
     00000016  ___bank_script_input_3             script_input_3
     00000016  ___bank_sprite_1                   sprite_1
     00000016  ___bank_sprite_1_tileset           sprite_1_tileset
     00000016  ___bank_sprite_2                   sprite_2
     00000016  ___bank_sprite_2_tileset           sprite_2_tileset
     00000016  ___bank_sprite_3                   sprite_3
     00000016  ___bank_sprite_3_tileset           sprite_3_tileset
     00000016  ___bank_sprite_4                   sprite_4
     00000016  ___bank_sprite_4_tileset           sprite_4_tileset
     00000016  ___bank_sprite_5                   sprite_5
     00000016  ___bank_sprite_5_tileset           sprite_5_tileset
     00000016  ___bank_sprite_6                   sprite_6
     00000016  ___bank_sprite_6_tileset           sprite_6_tileset
     00000016  ___bank_sprite_cursor_sheet        sprite_cursor_sheet
     00000016  ___bank_sprite_digspot             sprite_digspot
     00000016  ___bank_sprite_digspot_tileset     sprite_digspot_tileset
     00000016  ___bank_sprite_digspotopen         sprite_digspotopen
     00000016  ___bank_sprite_digspotopen_tiles   sprite_digspotopen_tileset
     00000016  ___bank_sprite_floortreasure       sprite_floortreasure
     00000016  ___bank_sprite_premenu             sprite_premenu
     00000016  ___bank_sprite_rock                sprite_rock
     00000016  ___bank_sprite_rock_tileset        sprite_rock_tileset
     00000016  ___bank_sprite_stupid              sprite_stupid
     00000016  ___bank_sprite_stupid_tileset      sprite_stupid_tileset
     00000016  ___bank_trigger_12_interact        trigger_12_interact
     00000016  ___bank_trigger_1_interact         trigger_1_interact
     00000016  ___bank_trigger_20_interact        trigger_20_interact
     00000016  ___bank_trigger_21_interact        trigger_21_interact
     00000016  ___bank_trigger_30_interact        trigger_30_interact
     00000016  ___bank_trigger_31_interact        trigger_31_interact
     00000016  ___bank_trigger_40_interact        trigger_40_interact
     00000016  ___bank_trigger_41_interact        trigger_41_interact
     00000016  ___bank_trigger_47_interact        trigger_47_interact
     00000016  ___bank_trigger_48_interact        trigger_48_interact
     00000016  ___bank_trigger_49_interact        trigger_49_interact
     00000016  ___bank_trigger_50_interact        trigger_50_interact
     00000016  ___bank_trigger_51_interact        trigger_51_interact
ASxxxx Linker V03.00 + NoICE + sdld,  page 18.
Hexadecimal  [32-Bits]

Area                                    Addr        Size        Decimal Bytes (Attributes)
--------------------------------        ----        ----        ------- ----- ------------
.  .ABS.                            00000000    00000000 =           0. bytes (ABS,CON)

      Value  Global                              Global Defined In Module
      -----  --------------------------------   ------------------------
     00000016  ___bank_trigger_52_interact        trigger_52_interact
     00000016  ___bank_trigger_53_interact        trigger_53_interact
     00000016  ___bank_trigger_54_interact        trigger_54_interact
     00000016  ___bank_trigger_55_interact        trigger_55_interact
     00000016  ___bank_trigger_56_interact        trigger_56_interact
     00000016  ___bank_trigger_57_interact        trigger_57_interact
     00000016  ___bank_trigger_58_interact        trigger_58_interact
     00000016  ___bank_trigger_59_interact        trigger_59_interact
     00000016  ___bank_trigger_60_interact        trigger_60_interact
     00000016  ___bank_trigger_61_interact        trigger_61_interact
     00000016  ___bank_trigger_62_interact        trigger_62_interact
     00000016  ___bank_trigger_63_interact        trigger_63_interact
     00000016  ___bank_trigger_64_interact        trigger_64_interact
     00000016  ___bank_trigger_65_interact        trigger_65_interact
     00000016  ___bank_trigger_66_interact        trigger_66_interact
     00000016  ___bank_trigger_67_interact        trigger_67_interact
     00000016  ___bank_trigger_68_interact        trigger_68_interact
     00000016  ___bank_trigger_69_interact        trigger_69_interact
     00000016  ___bank_trigger_70_interact        trigger_70_interact
     00000016  ___bank_trigger_71_interact        trigger_71_interact
     00000016  ___bank_trigger_72_interact        trigger_72_interact
     00000016  ___bank_trigger_74_interact        trigger_74_interact
     00000016  ___bank_trigger_75_interact        trigger_75_interact
     00000016  ___bank_trigger_76_interact        trigger_76_interact
     00000016  ___bank_trigger_77_interact        trigger_77_interact
     00000016  ___bank_trigger_78_interact        trigger_78_interact
     00000016  ___bank_trigger_79_interact        trigger_79_interact
     00000016  ___bank_trigger_80_interact        trigger_80_interact
     00000016  ___bank_trigger_81_interact        trigger_81_interact
     00000016  ___bank_trigger_82_interact        trigger_82_interact
     00000016  ___bank_trigger_83_interact        trigger_83_interact
     00000016  ___bank_trigger_84_interact        trigger_84_interact
     00000016  ___bank_trigger_85_interact        trigger_85_interact
     00000016  ___bank_trigger_86_interact        trigger_86_interact
     00000016  ___bank_trigger_87_interact        trigger_87_interact
     00000016  ___bank_trigger_88_interact        trigger_88_interact
     00000016  ___bank_trigger_89_interact        trigger_89_interact
     00000016  ___bank_trigger_90_interact        trigger_90_interact
     00000016  ___bank_trigger_91_interact        trigger_91_interact
     00000016  ___bank_trigger_92_interact        trigger_92_interact
     00000016  ___bank_trigger_93_interact        trigger_93_interact
     00000016  ___bank_trigger_94_interact        trigger_94_interact
     00000016  ___bank_trigger_95_interact        trigger_95_interact
     00000016  ___bank_trigger_96_interact        trigger_96_interact
     00000016  ___bank_trigger_97_interact        trigger_97_interact
     00000016  ___bank_trigger_98_interact        trigger_98_interact
     00000016  ___bank_trigger_99_interact        trigger_99_interact
     00000016  b_CGBZeroPalette                   palette
     00000016  b_SIO_init                         sio
     00000016  b_events_init                      events
     00000016  b_input_init                       input
ASxxxx Linker V03.00 + NoICE + sdld,  page 19.
Hexadecimal  [32-Bits]

Area                                    Addr        Size        Decimal Bytes (Attributes)
--------------------------------        ----        ----        ------- ----- ------------
.  .ABS.                            00000000    00000000 =           0. bytes (ABS,CON)

      Value  Global                              Global Defined In Module
      -----  --------------------------------   ------------------------
     00000016  b_logo_init                        logo
     00000016  b_logo_update                      logo
     00000016  b_palette_init                     palette
     00000016  b_restore_sram                     flasher
     00000016  b_restore_sram_bank                flasher
     00000016  b_save_sram                        flasher
     00000016  b_scroll_rect                      
     00000016  b_timers_init                      events
     00000019  l__INITIALIZED                  
     00000019  l__INITIALIZER                  
     0000001C  __start_save                    
     00000027  l__GSINIT                       
     00000030  l__HEADER6                      
     0000004E  l__HEADER4                      
     00000082  l__HEADER10                     
     000001CB  l__CRASH_SCRATCH2               
     00000200  s__CODE                         
     00000C4E  l__CODE                         
     00000E4E  s__HOME                         
     0000197F  l__DATA                         
     00002000  _rROMB0                            
     00002C81  l__HOME                         
     00003000  _rROMB1                            
     00003021  l__CODE_22                      
     00003ACF  s__BASE                         
     00003ACF  s__CODE_0                       
     00003ACF  s__INITIALIZER                  
     00003ACF  s__LIT                          
     00003AE8  s__GSINIT                       
     00003B0F  s__GSFINAL                      
     00003FFE  l__CODE_11                      
     00003FFE  l__CODE_3                       
     00003FFE  l__CODE_6                       
     00003FFF  l__CODE_1                       
     00003FFF  l__CODE_10                      
     00003FFF  l__CODE_12                      
     00003FFF  l__CODE_13                      
     00003FFF  l__CODE_15                      
     00003FFF  l__CODE_17                      
     00003FFF  l__CODE_18                      
     00003FFF  l__CODE_20                      
     00003FFF  l__CODE_4                       
     00003FFF  l__CODE_5                       
     00003FFF  l__CODE_7                       
     00004000  _RTC_SELECT_REG                    vm_rtc
     00004000  _rRAMB                             
     00004000  l__CODE_14                      
     00004000  l__CODE_16                      
     00004000  l__CODE_19                      
     00004000  l__CODE_2                       
     00004000  l__CODE_21                      
ASxxxx Linker V03.00 + NoICE + sdld,  page 20.
Hexadecimal  [32-Bits]

Area                                    Addr        Size        Decimal Bytes (Attributes)
--------------------------------        ----        ----        ------- ----- ------------
.  .ABS.                            00000000    00000000 =           0. bytes (ABS,CON)

      Value  Global                              Global Defined In Module
      -----  --------------------------------   ------------------------
     00004000  l__CODE_8                       
     00004000  l__CODE_9                       
     00006000  _RTC_LATCH_REG                     vm_rtc
     00008000  __VRAM                             
     00008000  __VRAM8000                         
     00008800  __VRAM8800                         
     00009000  __VRAM9000                         
     00009800  __SCRN0                            
     00009C00  __SCRN1                            
     0000A000  _RTC_VALUE_REG                     vm_rtc
     0000A000  __SRAM                             
     0000C000  __RAM                              
     0000C000  _shadow_OAM                     
     0000C0A0  s__DATA                         
     0000D000  __RAMBANK                          
     0000DA1F  s__BSS                          
     0000DA1F  s__INITIALIZED                  
     0000DA38  s__HEAP                         
     0000DF00  .STACK                          
     0000DF00  _shadow_OAM2                       absolute
     0000DFA0  _BkgPalette                        absolute
     0000DFE0  _vwf_tile_data                     absolute
     0000FE00  __OAMRAM                           
     0000FF00  _P1_REG                            
     0000FF00  __IO                               
     0000FF01  _SB_REG                            
     0000FF02  _SC_REG                            
     0000FF04  _DIV_REG                           
     0000FF05  _TIMA_REG                          
     0000FF06  _TMA_REG                           
     0000FF07  _TAC_REG                           
     0000FF0F  _IF_REG                            
     0000FF10  _NR10_REG                          
     0000FF11  _NR11_REG                          
     0000FF12  _NR12_REG                          
     0000FF13  _NR13_REG                          
     0000FF14  _NR14_REG                          
     0000FF16  _NR21_REG                          
     0000FF17  _NR22_REG                          
     0000FF18  _NR23_REG                          
     0000FF19  _NR24_REG                          
     0000FF1A  _NR30_REG                          
     0000FF1B  _NR31_REG                          
     0000FF1C  _NR32_REG                          
     0000FF1D  _NR33_REG                          
     0000FF1E  _NR34_REG                          
     0000FF20  _NR41_REG                          
     0000FF21  _NR42_REG                          
     0000FF22  _NR43_REG                          
     0000FF23  _NR44_REG                          
     0000FF24  _NR50_REG                          
ASxxxx Linker V03.00 + NoICE + sdld,  page 21.
Hexadecimal  [32-Bits]

Area                                    Addr        Size        Decimal Bytes (Attributes)
--------------------------------        ----        ----        ------- ----- ------------
.  .ABS.                            00000000    00000000 =           0. bytes (ABS,CON)

      Value  Global                              Global Defined In Module
      -----  --------------------------------   ------------------------
     0000FF25  _NR51_REG                          
     0000FF26  _NR52_REG                          
     0000FF30  _AUD3WAVE                          
     0000FF30  _PCM_SAMPLE                        
     0000FF30  __AUD3WAVERAM                      
     0000FF40  _LCDC_REG                          
     0000FF41  _STAT_REG                          
     0000FF42  _SCY_REG                           
     0000FF43  _SCX_REG                           
     0000FF44  _LY_REG                            
     0000FF45  _LYC_REG                           
     0000FF46  _DMA_REG                           
     0000FF47  _BGP_REG                           
     0000FF48  _OBP0_REG                          
     0000FF49  _OBP1_REG                          
     0000FF4A  _WY_REG                            
     0000FF4B  _WX_REG                            
     0000FF4D  _KEY1_REG                          
     0000FF4F  _VBK_REG                           
     0000FF51  _HDMA1_REG                         
     0000FF52  _HDMA2_REG                         
     0000FF53  _HDMA3_REG                         
     0000FF54  _HDMA4_REG                         
     0000FF55  _HDMA5_REG                         
     0000FF56  _RP_REG                            
     0000FF68  _BCPS_REG                          
     0000FF69  _BCPD_REG                          
     0000FF6A  _OCPS_REG                          
     0000FF6B  _OCPD_REG                          
     0000FF70  _SVBK_REG                          
     0000FF76  _PCM12_REG                         
     0000FF77  _PCM34_REG                         
     0000FF80  .refresh_OAM                    
     0000FF80  __HRAM                             
     0000FFFF  _IE_REG                            
     00014000  s__CODE_1                       
     00024000  s__CODE_2                       
     00034000  s__CODE_3                       
     00044000  s__CODE_4                       
     00054000  s__CODE_5                       
     00064000  s__CODE_6                       
     00074000  s__CODE_7                       
     00084000  s__CODE_8                       
     00094000  s__CODE_9                       
     000A4000  s__CODE_10                      
     000B4000  s__CODE_11                      
     000C4000  s__CODE_12                      
     000D4000  s__CODE_13                      
     000E4000  s__CODE_14                      
     000F4000  s__CODE_15                      
     00104000  s__CODE_16                      
ASxxxx Linker V03.00 + NoICE + sdld,  page 22.
Hexadecimal  [32-Bits]

Area                                    Addr        Size        Decimal Bytes (Attributes)
--------------------------------        ----        ----        ------- ----- ------------
.  .ABS.                            00000000    00000000 =           0. bytes (ABS,CON)

      Value  Global                              Global Defined In Module
      -----  --------------------------------   ------------------------
     00114000  s__CODE_17                      
     00124000  s__CODE_18                      
     00134000  s__CODE_19                      
     00144000  s__CODE_20                      
     00154000  s__CODE_21                      
     00164000  s__CODE_22                      

ASxxxx Linker V03.00 + NoICE + sdld,  page 23.
Hexadecimal  [32-Bits]

Area                                    Addr        Size        Decimal Bytes (Attributes)
--------------------------------        ----        ----        ------- ----- ------------
_CODE                               00000200    00000C4E =        3150. bytes (REL,CON)

      Value  Global                              Global Defined In Module
      -----  --------------------------------   ------------------------
     00000200  ___HandleCrash                     
     0000020A  _SIO_send_byte                     
     0000021D  _SIO_receive                       
     0000022E  _SetTile                           
     0000023D  _set_win_tile_xy                   
     00000242  _set_bkg_tile_xy                   
     00000265  _GetWinAddr                        
     0000026D  _GetBkgAddr                        
     0000027B  _state_init                        
     00000280  _state_update                      
     000002A2  _ui_time_masks                     
     000002AA  _ui_print_shift_char               
     0000032D  _ui_draw_frame_row                 
     00000336  .ui_draw_frame_row                 
     0000035F  _script_cmds                       vm_instructions
     00000593  _save_signature                    game_signature
     00000597  _start_scene_x                     
     00000599  _start_scene_y                     
     0000059B  _start_scene_dir                   
     0000059C  _start_scene                       
     0000059F  _start_player_move_speed           
     000005A0  _start_player_anim_tick            
     000005A1  _ui_fonts                          
     000005A4  _core_reset_hook                   main
     000005AC  _main                              main
     000005B4  _state_start_fns                   
     000005C6  _state_update_fns                  
     000005D8  _hUGE_init_banked                  hUGEDriver_obj
     000005DC  _hUGE_init                         hUGEDriver_obj
     000005E7  _hUGE_mute_channel_banked          hUGEDriver_obj
     000005EB  _hUGE_mute_channel                 hUGEDriver_obj
     000005F8  _hUGE_set_position_banked          hUGEDriver_obj
     000005FC  _hUGE_set_position                 hUGEDriver_obj
     00000605  hUGE_init                          hUGEDriver_obj
     0000065B  hUGE_mute_channel                  hUGEDriver_obj
     00000851  hUGE_set_position                  hUGEDriver_obj
     000009B9  _hUGE_dosound                      hUGEDriver_obj
     000009B9  _hUGE_dosound_banked               hUGEDriver_obj
     000009B9  hUGE_dosound                       hUGEDriver_obj
     00000CA8  _get_vram_byte                     
     00000CB5  _get_win_tile_xy                   
     00000CBD  _get_bkg_tile_xy                   
     00000CE4  _set_sprite_palette                CGB
     00000CE9  _set_bkg_palette                   CGB
     00000CEC  .set_palette                       CGB
     00000D0B  _set_sprite_palette_entry          CGB
     00000D10  _set_bkg_palette_entry             CGB
     00000D13  .set_palette_entry                 CGB
     00000D2F  _hide_sprites_range                Metasprites
     00000D5F  .sgb_check                         
ASxxxx Linker V03.00 + NoICE + sdld,  page 24.
Hexadecimal  [32-Bits]

Area                                    Addr        Size        Decimal Bytes (Attributes)
--------------------------------        ----        ----        ------- ----- ------------
_CODE                               00000200    00000C4E =        3150. bytes (REL,CON)

      Value  Global                              Global Defined In Module
      -----  --------------------------------   ------------------------
     00000D5F  _sgb_check                         
     00000DA7  _sgb_transfer                      
     00000DAC  .sgb_transfer                      
     00000DED  ___move_metasprite                 Metasprites
     00000E2C  _cpu_slow                          CGB
     00000E47  _cpu_fast                          CGB

ASxxxx Linker V03.00 + NoICE + sdld,  page 25.
Hexadecimal  [32-Bits]

Area                                    Addr        Size        Decimal Bytes (Attributes)
--------------------------------        ----        ----        ------- ----- ------------
_HEADER0                            00000000    00000001 =           1. bytes (ABS,CON)

      Value  Global                              Global Defined In Module
      -----  --------------------------------   ------------------------
     00000020  .call_hl                           Runtime

ASxxxx Linker V03.00 + NoICE + sdld,  page 26.
Hexadecimal  [32-Bits]

Area                                    Addr        Size        Decimal Bytes (Attributes)
--------------------------------        ----        ----        ------- ----- ------------
_HEADER1                            00000000    00000005 =           5. bytes (ABS,CON)

      Value  Global                              Global Defined In Module
      -----  --------------------------------   ------------------------
     00000028  .MemsetSmall                       Runtime

ASxxxx Linker V03.00 + NoICE + sdld,  page 27.
Hexadecimal  [32-Bits]

Area                                    Addr        Size        Decimal Bytes (Attributes)
--------------------------------        ----        ----        ------- ----- ------------
_HEADER2                            00000000    00000007 =           7. bytes (ABS,CON)

      Value  Global                              Global Defined In Module
      -----  --------------------------------   ------------------------
     00000030  .MemcpySmall                       Runtime

ASxxxx Linker V03.00 + NoICE + sdld,  page 28.
Hexadecimal  [32-Bits]

Area                                    Addr        Size        Decimal Bytes (Attributes)
--------------------------------        ----        ----        ------- ----- ------------
_HEADER3                            00000000    00000008 =           8. bytes (ABS,CON)

      Value  Global                              Global Defined In Module
      -----  --------------------------------   ------------------------
ASxxxx Linker V03.00 + NoICE + sdld,  page 29.
Hexadecimal  [32-Bits]

Area                                    Addr        Size        Decimal Bytes (Attributes)
--------------------------------        ----        ----        ------- ----- ------------
_HEADER4                            00000000    0000004E =          78. bytes (ABS,CON)

      Value  Global                              Global Defined In Module
      -----  --------------------------------   ------------------------
     00000080  .int                               Runtime
     0000008F  _wait_int_handler                  Runtime
     0000009C  __standard_VBL_handler             Runtime
     000000AC  _refresh_OAM                       Runtime

ASxxxx Linker V03.00 + NoICE + sdld,  page 30.
Hexadecimal  [32-Bits]

Area                                    Addr        Size        Decimal Bytes (Attributes)
--------------------------------        ----        ----        ------- ----- ------------
_HEADER5                            00000000    00000002 =           2. bytes (ABS,CON)

      Value  Global                              Global Defined In Module
      -----  --------------------------------   ------------------------
ASxxxx Linker V03.00 + NoICE + sdld,  page 31.
Hexadecimal  [32-Bits]

Area                                    Addr        Size        Decimal Bytes (Attributes)
--------------------------------        ----        ----        ------- ----- ------------
_HEADER6                            00000000    00000030 =          48. bytes (ABS,CON)

      Value  Global                              Global Defined In Module
      -----  --------------------------------   ------------------------
ASxxxx Linker V03.00 + NoICE + sdld,  page 32.
Hexadecimal  [32-Bits]

Area                                    Addr        Size        Decimal Bytes (Attributes)
--------------------------------        ----        ----        ------- ----- ------------
_HEADER7                            00000000    00000006 =           6. bytes (ABS,CON)

      Value  Global                              Global Defined In Module
      -----  --------------------------------   ------------------------
ASxxxx Linker V03.00 + NoICE + sdld,  page 33.
Hexadecimal  [32-Bits]

Area                                    Addr        Size        Decimal Bytes (Attributes)
--------------------------------        ----        ----        ------- ----- ------------
_HEADER8                            00000000    00000003 =           3. bytes (ABS,CON)

      Value  Global                              Global Defined In Module
      -----  --------------------------------   ------------------------
ASxxxx Linker V03.00 + NoICE + sdld,  page 34.
Hexadecimal  [32-Bits]

Area                                    Addr        Size        Decimal Bytes (Attributes)
--------------------------------        ----        ----        ------- ----- ------------
_HEADER9                            00000000    00000001 =           1. bytes (ABS,CON)

      Value  Global                              Global Defined In Module
      -----  --------------------------------   ------------------------
ASxxxx Linker V03.00 + NoICE + sdld,  page 35.
Hexadecimal  [32-Bits]

Area                                    Addr        Size        Decimal Bytes (Attributes)
--------------------------------        ----        ----        ------- ----- ------------
_HEADERa                            00000000    00000001 =           1. bytes (ABS,CON)

      Value  Global                              Global Defined In Module
      -----  --------------------------------   ------------------------
ASxxxx Linker V03.00 + NoICE + sdld,  page 36.
Hexadecimal  [32-Bits]

Area                                    Addr        Size        Decimal Bytes (Attributes)
--------------------------------        ----        ----        ------- ----- ------------
_HEADERb                            00000000    00000001 =           1. bytes (ABS,CON)

      Value  Global                              Global Defined In Module
      -----  --------------------------------   ------------------------
ASxxxx Linker V03.00 + NoICE + sdld,  page 37.
Hexadecimal  [32-Bits]

Area                                    Addr        Size        Decimal Bytes (Attributes)
--------------------------------        ----        ----        ------- ----- ------------
_HEADERc                            00000000    00000002 =           2. bytes (ABS,CON)

      Value  Global                              Global Defined In Module
      -----  --------------------------------   ------------------------
ASxxxx Linker V03.00 + NoICE + sdld,  page 38.
Hexadecimal  [32-Bits]

Area                                    Addr        Size        Decimal Bytes (Attributes)
--------------------------------        ----        ----        ------- ----- ------------
_HEADERd                            00000000    00000001 =           1. bytes (ABS,CON)

      Value  Global                              Global Defined In Module
      -----  --------------------------------   ------------------------
ASxxxx Linker V03.00 + NoICE + sdld,  page 39.
Hexadecimal  [32-Bits]

Area                                    Addr        Size        Decimal Bytes (Attributes)
--------------------------------        ----        ----        ------- ----- ------------
_HEADERe                            00000000    00000001 =           1. bytes (ABS,CON)

      Value  Global                              Global Defined In Module
      -----  --------------------------------   ------------------------
ASxxxx Linker V03.00 + NoICE + sdld,  page 40.
Hexadecimal  [32-Bits]

Area                                    Addr        Size        Decimal Bytes (Attributes)
--------------------------------        ----        ----        ------- ----- ------------
_HEADERf                            00000000    00000002 =           2. bytes (ABS,CON)

      Value  Global                              Global Defined In Module
      -----  --------------------------------   ------------------------
ASxxxx Linker V03.00 + NoICE + sdld,  page 41.
Hexadecimal  [32-Bits]

Area                                    Addr        Size        Decimal Bytes (Attributes)
--------------------------------        ----        ----        ------- ----- ------------
_HEADER10                           00000000    00000082 =         130. bytes (ABS,CON)

      Value  Global                              Global Defined In Module
      -----  --------------------------------   ------------------------
     00000150  .reset                             Runtime
     00000150  _reset                             Runtime
     00000157  .code_start                        Runtime
     000001B7  _exit                              Runtime
     000001BB  _set_interrupts                    Runtime

ASxxxx Linker V03.00 + NoICE + sdld,  page 42.
Hexadecimal  [32-Bits]

Area                                    Addr        Size        Decimal Bytes (Attributes)
--------------------------------        ----        ----        ------- ----- ------------
_HEADER11                           00000000    00000001 =           1. bytes (ABS,CON)

      Value  Global                              Global Defined In Module
      -----  --------------------------------   ------------------------
ASxxxx Linker V03.00 + NoICE + sdld,  page 43.
Hexadecimal  [32-Bits]

Area                                    Addr        Size        Decimal Bytes (Attributes)
--------------------------------        ----        ----        ------- ----- ------------
_HOME                               00000E4E    00002C81 =       11393. bytes (REL,CON)

      Value  Global                              Global Defined In Module
      -----  --------------------------------   ------------------------
     00000E4E  .memset_simple                     Runtime
     00000E57  .memcpy_simple                     Runtime
     00000E74  .remove_VBL                        Runtime
     00000E77  .remove_int                        Runtime
     00000E94  .add_VBL                           Runtime
     00000E97  .add_int                           Runtime
     00000EA2  .wait_vbl_done                     Runtime
     00000EA2  _wait_vbl_done                     Runtime
     00000EB2  .display_off                       Runtime
     00000EB2  _display_off                       Runtime
     00000ECA  _remove_VBL                        Runtime
     00000ED5  _add_VBL                           Runtime
     00000EE0  _actors_update                     actor
     000012E9  _SetBankedBkgData                  bankdata
     00001305  _SetBankedSpriteData               bankdata
     00001321  _SetBankedBkgTiles                 bankdata
     0000133D  _SetBankedWinTiles                 bankdata
     00001359  _ReadBankedFarPtr                  bankdata
     00001380  _ReadBankedUWORD                   bankdata
     0000139C  _MemcpyBanked                      bankdata
     000013B8  _MemcpyVRAMBanked                  bankdata
     000013D4  _IndexOfFarPtr                     bankdata
     0000146A  _camera_update                     camera
     0000159D  _load_animations                   data_manager
     000015FC  _events_update                     events
     000016CE  _timers_update                     events
     00001756  _input_update                      input
     00001786  .sio_ISR                           
     000017E0  .timer_ISR                         
     000017F5  _simple_LCD_isr                    interrupts
     00001871  _fullscreen_LCD_isr                interrupts
     0000189D  _VBL_isr                           interrupts
     000018E7  _isqrt                             math
     0000193D  _sine_wave                         math
     00001A3D  _dir_lookup                        math
     00001A45  _dir_angle_lookup                  math
     00001A49  _hUGETrackerRoutine                music_manager
     00001A75  _music_events_update               music_manager
     00001AF7  _music_play_isr                    music_manager
     00001B9D  _parallax_LCD_isr                  parallax
     00001BDA  _projectiles_update                projectiles
     00002079  _projectiles_render                projectiles
     000021EC  _scroll_load_pending_row           scroll
     00002278  _scroll_load_row                   scroll
     000022F2  _scroll_load_col                   scroll
     0000235D  _scroll_load_pending_col           scroll
     000023EE  _set_bkg_submap                    
     00002431  _set_xy_win_submap                 
     0000245E  .set_xy_win_submap                 
     00002467  .set_xy_bkg_submap                 
ASxxxx Linker V03.00 + NoICE + sdld,  page 44.
Hexadecimal  [32-Bits]

Area                                    Addr        Size        Decimal Bytes (Attributes)
--------------------------------        ----        ----        ------- ----- ------------
_HOME                               00000E4E    00002C81 =       11393. bytes (REL,CON)

      Value  Global                              Global Defined In Module
      -----  --------------------------------   ------------------------
     00002476  .set_xy_submap                     
     000024BC  _sfx_play_isr                      sfx_player
     0000258F  _on_SIO_receive                    sio
     000025D0  _SIO_update                        sio
     00002637  _ui_update                         ui
     00002766  _vm_sgb_transfer                   vm_sgb
     000027B4  _vm_load_text                      vm_ui
     00002A09  _vm_switch                         vm
     00002B0C  _vm_beginthread                    vm
     00002C31  _vm_rpn                            vm
     00003373  _vm_get_far                        vm
     000033DD  _vm_call_native                    vm
     000033F0  _VM_STEP                           vm
     0000345E  _script_runner_update              vm
     000035C9  _fill_win_rect                     
     000035DB  _rand                              
     000035DB  _randw                             
     00003606  _initrand                          
     00003608  .initrand                          
     00003611  _get_bkg_data                      
     00003611  _get_win_data                      
     0000365E  _get_sprite_data                   
     0000368E  __mulsuchar                        mul
     00003698  __muluschar                        mul
     000036A2  __mulschar                         mul
     000036B4  __muluchar                         mul
     000036C0  __mulint                           mul
     000036E6  _abs                               abs
     000036F5  _set_win_tiles                     
     00003709  _set_tile_data                     
     0000370E  _set_bkg_data                      
     0000370E  _set_win_data                      
     00003716  _set_sprite_data                   
     00003746  _reverse                           reverse
     0000377A  ___call__banked                    far_ptr
     00003797  _to_far_ptr                        far_ptr
     000037D0  _add_LCD                           
     000037DB  .add_LCD                           
     000037E1  _remove_LCD                        
     000037EC  .remove_LCD                        
     000037F2  .fill_rect_wtt                     
     000037FB  .fill_rect_btt                     
     00003848  .copy_vram                         
     0000385C  _get_data                          
     0000385C  _set_data                          
     0000385C  _vmemcpy                           
     0000386F  _fill_bkg_rect                     
     00003881  .padup                             
     00003881  _waitpadup                         
     00003891  .jpad                              
     00003891  _joypad                            
ASxxxx Linker V03.00 + NoICE + sdld,  page 45.
Hexadecimal  [32-Bits]

Area                                    Addr        Size        Decimal Bytes (Attributes)
--------------------------------        ----        ----        ------- ----- ------------
_HOME                               00000E4E    00002C81 =       11393. bytes (REL,CON)

      Value  Global                              Global Defined In Module
      -----  --------------------------------   ------------------------
     000038B9  _waitpad                           
     000038BC  .wait_pad                          
     000038C3  ___sdcc_call_hl                    call_hl
     000038C4  ___memcpy                          memcpy
     000038C4  _memcpy                            memcpy
     00003907  _memset                            memset
     0000393A  .set_xy_wtt                        SetTileMap
     00003943  .set_xy_btt                        SetTileMap
     00003952  .set_xy_tt                         SetTileMap
     00003994  __divsuchar                        div
     000039A1  __modsuchar                        div
     000039AB  __divuschar                        div
     000039BD  __moduschar                        div
     000039CD  __divschar                         div
     000039D9  __modschar                         div
     000039E3  __divsint                          div
     000039F4  __modsint                          div
     00003A03  __divuchar                         div
     00003A0F  __moduchar                         div
     00003A19  __divuint                          div
     00003A2A  __moduint                          div
     00003A39  .div8                              div
     00003A39  .mod8                              div
     00003A41  .div16                             div
     00003A41  .mod16                             div
     00003A77  .divu8                             div
     00003A77  .modu8                             div
     00003A7A  .divu16                            div
     00003A7A  .modu16                            div
     00003ABB  _set_bkg_tiles                     

ASxxxx Linker V03.00 + NoICE + sdld,  page 46.
Hexadecimal  [32-Bits]

Area                                    Addr        Size        Decimal Bytes (Attributes)
--------------------------------        ----        ----        ------- ----- ------------
_INITIALIZER                        00003ACF    00000019 =          25. bytes (REL,CON)

      Value  Global                              Global Defined In Module
      -----  --------------------------------   ------------------------
ASxxxx Linker V03.00 + NoICE + sdld,  page 47.
Hexadecimal  [32-Bits]

Area                                    Addr        Size        Decimal Bytes (Attributes)
--------------------------------        ----        ----        ------- ----- ------------
_GSINIT                             00003AE8    00000027 =          39. bytes (REL,CON)

      Value  Global                              Global Defined In Module
      -----  --------------------------------   ------------------------
     00003AE8  gsinit                             Runtime

ASxxxx Linker V03.00 + NoICE + sdld,  page 48.
Hexadecimal  [32-Bits]

Area                                    Addr        Size        Decimal Bytes (Attributes)
--------------------------------        ----        ----        ------- ----- ------------
_GSFINAL                            00003B0F    00000001 =           1. bytes (REL,CON)

      Value  Global                              Global Defined In Module
      -----  --------------------------------   ------------------------
ASxxxx Linker V03.00 + NoICE + sdld,  page 49.
Hexadecimal  [32-Bits]

Area                                    Addr        Size        Decimal Bytes (Attributes)
--------------------------------        ----        ----        ------- ----- ------------
_DATA                               0000C0A0    0000197F =        6527. bytes (REL,CON)

      Value  Global                              Global Defined In Module
      -----  --------------------------------   ------------------------
     0000C0A0  __cpu                              Runtime
     0000C0A1  __is_GBA                           Runtime
     0000C0A2  .mode                              Runtime
     0000C0A3  .sys_time                          Runtime
     0000C0A3  _sys_time                          Runtime
     0000C0A5  .int_0x40                          Runtime
     0000C0B9  _actors                            actor
     0000C4FD  _actors_active_head                actor
     0000C4FF  _actors_active_tail                actor
     0000C501  _actors_inactive_head              actor
     0000C503  _screen_x                          actor
     0000C504  _screen_y                          actor
     0000C505  _invalid                           actor
     0000C507  _player_moving                     actor
     0000C508  _player_iframes                    actor
     0000C509  _player_collision_actor            actor
     0000C50B  _emote_actor                       actor
     0000C50D  _emote_timer                       actor
     0000C50E  _allocated_hardware_sprites        actor
     0000C51A  _camera_x                          camera
     0000C51C  _camera_y                          camera
     0000C51E  _camera_offset_x                   camera
     0000C51F  _camera_offset_y                   camera
     0000C520  _camera_deadzone_x                 camera
     0000C521  _camera_deadzone_y                 camera
     0000C522  _camera_settings                   camera
     0000C526  _current_scene                     data_manager
     0000C529  _image_bank                        data_manager
     0000C52A  _image_ptr                         data_manager
     0000C52C  _image_attr_bank                   data_manager
     0000C52D  _image_attr_ptr                    data_manager
     0000C52F  _collision_bank                    data_manager
     0000C530  _collision_ptr                     data_manager
     0000C532  _image_tile_width                  data_manager
     0000C533  _image_tile_height                 data_manager
     0000C534  _image_width                       data_manager
     0000C536  _image_height                      data_manager
     0000C538  _sprites_len                       data_manager
     0000C539  _actors_len                        data_manager
     0000C53A  _projectiles_len                   data_manager
     0000C53B  _player_sprite_len                 data_manager
     0000C53C  _scene_type                        data_manager
     0000C53D  _scene_LCD_type                    data_manager
     0000C53E  _scene_stack                       data_manager
     0000C57E  _scene_stack_ptr                   data_manager
     0000C580  _scene_sprites_base_tiles          data_manager
     0000C5C0  _input_events                      events
     0000C5E8  _input_slots                       events
     0000C5F0  _timer_events                      events
     0000C604  _timer_values                      events
ASxxxx Linker V03.00 + NoICE + sdld,  page 50.
Hexadecimal  [32-Bits]

Area                                    Addr        Size        Decimal Bytes (Attributes)
--------------------------------        ----        ----        ------- ----- ------------
_DATA                               0000C0A0    0000197F =        6527. bytes (REL,CON)

      Value  Global                              Global Defined In Module
      -----  --------------------------------   ------------------------
     0000C60C  _fade_running                      fade_manager
     0000C60D  _fade_frames_per_step              fade_manager
     0000C60E  _fade_timer                        fade_manager
     0000C616  _joypads                           input
     0000C61B  _frame_joy                         input
     0000C61C  _last_joy                          input
     0000C61D  _recent_joy                        input
     0000C61E  _SIO_status                        
     0000C61F  _link_byte_sent                    
     0000C620  _link_next_mode                    
     0000C621  _save_blob_size                    load_save
     0000C623  _routine_queue                     music_manager
     0000C627  _routine_queue_head                music_manager
     0000C628  _routine_queue_tail                music_manager
     0000C629  _music_events                      music_manager
     0000C63D  _music_current_track_bank          music_manager
     0000C63E  _music_mute_flag                   music_manager
     0000C63F  _music_mute_mask                   music_manager
     0000C640  _music_next_track                  music_manager
     0000C642  _music_current_track               music_manager
     0000C644  _music_play_isr_counter            music_manager
     0000C645  _music_play_isr_pause              music_manager
     0000C646  _music_global_mute_mask            music_manager
     0000C647  _music_sfx_priority                music_manager
     0000C648  _DMG_palette                       palette
     0000C64B  _SprPalette                        palette
     0000C68B  _parallax_rows                     parallax
     0000C69D  _parallax_row                      parallax
     0000C69F  _projectiles                       projectiles
     0000C758  _projectile_defs                   projectiles
     0000C7CB  _projectiles_active_head           projectiles
     0000C7CD  _projectiles_inactive_head         projectiles
     0000C7D4  _scroll_x                          scroll
     0000C7D6  _scroll_y                          scroll
     0000C7D8  _draw_scroll_x                     scroll
     0000C7DA  _draw_scroll_y                     scroll
     0000C7DC  _scroll_x_max                      scroll
     0000C7DE  _scroll_y_max                      scroll
     0000C7E0  _scroll_offset_x                   scroll
     0000C7E1  _scroll_offset_y                   scroll
     0000C7E2  _pending_h_x                       scroll
     0000C7E3  _pending_h_y                       scroll
     0000C7E4  _pending_h_i                       scroll
     0000C7E5  _pending_w_x                       scroll
     0000C7E6  _pending_w_y                       scroll
     0000C7E7  _pending_w_i                       scroll
     0000C7E8  _current_row                       scroll
     0000C7EA  _new_row                           scroll
     0000C7EC  _current_col                       scroll
     0000C7EE  _new_col                           scroll
     0000C7F0  .image_tile_width                  
ASxxxx Linker V03.00 + NoICE + sdld,  page 51.
Hexadecimal  [32-Bits]

Area                                    Addr        Size        Decimal Bytes (Attributes)
--------------------------------        ----        ----        ------- ----- ------------
_DATA                               0000C0A0    0000197F =        6527. bytes (REL,CON)

      Value  Global                              Global Defined In Module
      -----  --------------------------------   ------------------------
     0000C7F1  _sfx_play_bank                     sfx_player
     0000C7F2  _sfx_play_sample                   sfx_player
     0000C7F4  _sfx_frame_skip                    sfx_player
     0000C7F5  _link_operation_mode               sio
     0000C7F6  _link_packet                       sio
     0000C816  _link_packet_len                   sio
     0000C817  _link_packet_ptr                   sio
     0000C819  _link_packet_received              sio
     0000C81A  _link_packet_snd_len               sio
     0000C81B  _link_packet_snd_ptr               sio
     0000C81D  _link_packet_sent                  sio
     0000C81E  __is_CGB                           system
     0000C81F  __is_SGB                           system
     0000C820  __current_ram_bank                 system
     0000C821  _triggers                          trigger
     0000C919  _last_trigger_tx                   trigger
     0000C91A  _last_trigger_ty                   trigger
     0000C91B  _last_trigger                      trigger
     0000C91C  _win_pos_x                         ui
     0000C91D  _win_dest_pos_x                    ui
     0000C91E  _win_pos_y                         ui
     0000C91F  _win_dest_pos_y                    ui
     0000C920  _win_speed                         ui
     0000C921  _text_drawn                        ui
     0000C922  _current_text_speed                ui
     0000C923  _text_wait                         ui
     0000C924  _text_options                      ui
     0000C925  _text_in_speed                     ui
     0000C926  _text_out_speed                    ui
     0000C927  _text_draw_speed                   ui
     0000C928  _text_ff_joypad                    ui
     0000C929  _text_ff                           ui
     0000C92A  _text_bkg_fill                     ui
     0000C92B  _ui_text_data                      ui
     0000CA35  _vwf_current_mask                  ui
     0000CA36  _vwf_current_rotate                ui
     0000CA37  _vwf_inverse_map                   ui
     0000CA38  _vwf_direction                     ui
     0000CA39  _vwf_current_font_desc             ui
     0000CA41  _vwf_current_font_bank             ui
     0000CA42  _vwf_current_font_idx              ui
     0000CA43  _text_render_base_addr             ui
     0000CA45  _text_scroll_addr                  ui
     0000CA47  _text_scroll_width                 ui
     0000CA48  _text_scroll_height                ui
     0000CA49  _text_scroll_fill                  ui
     0000CA4A  _text_sound_mask                   ui
     0000CA4B  _text_sound_bank                   ui
     0000CA4C  _text_sound_data                   ui
     0000CA4E  _overlay_priority                  ui
     0000CA55  __itoa_fmt_len                     vm_ui_a
ASxxxx Linker V03.00 + NoICE + sdld,  page 52.
Hexadecimal  [32-Bits]

Area                                    Addr        Size        Decimal Bytes (Attributes)
--------------------------------        ----        ----        ------- ----- ------------
_DATA                               0000C0A0    0000197F =        6527. bytes (REL,CON)

      Value  Global                              Global Defined In Module
      -----  --------------------------------   ------------------------
     0000CA56  .itoa_fmt_buf                      vm_ui_a
     0000CA59  _CTXS                              vm
     0000CB89  _first_ctx                         vm
     0000CB8B  _free_ctxs                         vm
     0000CB8D  _old_executing_ctx                 vm
     0000CB8F  _executing_ctx                     vm
     0000CB91  _vm_lock_state                     vm
     0000CB92  _vm_loaded_state                   vm
     0000CB93  _vm_exception_code                 vm
     0000CB94  _vm_exception_params_length        vm
     0000CB95  _vm_exception_params_bank          vm
     0000CB96  _vm_exception_params_offset        vm
     0000CB99  _script_memory                     vm
     0000D99F  _grounded                          platform
     0000D9A0  _on_ladder                         platform
     0000D9A1  _pl_vel_x                          platform
     0000D9A3  _pl_vel_y                          platform
     0000D9A5  _plat_min_vel                      platform
     0000D9A7  _plat_walk_vel                     platform
     0000D9A9  _plat_climb_vel                    platform
     0000D9AB  _plat_run_vel                      platform
     0000D9AD  _plat_walk_acc                     platform
     0000D9AF  _plat_run_acc                      platform
     0000D9B1  _plat_dec                          platform
     0000D9B3  _plat_jump_vel                     platform
     0000D9B5  _plat_grav                         platform
     0000D9B7  _plat_hold_grav                    platform
     0000D9B9  _plat_max_fall_vel                 platform
     0000D9BB  _shooter_reached_end               shmup
     0000D9BC  _shooter_dest                      shmup
     0000D9BE  _shooter_direction                 shmup
     0000D9BF  _topdown_grid                      topdown
     0000D9C0  ___rand_seed                       
     0000D9DE  _hUGE_current_wave                 hUGEDriver_obj
     0000D9DE  hUGE_current_wave                  hUGEDriver_obj
     0000D9DF  _hUGE_mute_mask                    hUGEDriver_obj
     0000DA08  ___call_banked_addr                far_ptr
     0000DA08  ___call_banked_ptr                 far_ptr
     0000DA0A  ___call_banked_bank                far_ptr
     0000DA0C  .int_0x48                          
     0000DA1C  ___current_metasprite              Metasprites
     0000DA1E  ___current_base_tile               Metasprites

ASxxxx Linker V03.00 + NoICE + sdld,  page 53.
Hexadecimal  [32-Bits]

Area                                    Addr        Size        Decimal Bytes (Attributes)
--------------------------------        ----        ----        ------- ----- ------------
_INITIALIZED                        0000DA1F    00000019 =          25. bytes (REL,CON)

      Value  Global                              Global Defined In Module
      -----  --------------------------------   ------------------------
     0000DA1F  _fade_style                        fade_manager
     0000DA20  _game_time                         game_time
     0000DA21  _PRN_PKT_START                     gbprinter
     0000DA2F  _hide_sprites                      interrupts
     0000DA30  _show_actors_on_overlay            interrupts
     0000DA31  _overlay_cut_scanline              interrupts
     0000DA32  _triggers_len                      trigger
     0000DA33  _exchange_state                    vm_sio
     0000DA34  _last_hit_trigger                  pointnclick
     0000DA35  _shooter_scroll_speed              shmup
     0000DA36  ___render_shadow_OAM               Metasprites
     0000DA37  __map_tile_offset                  SetTileMap
ASxxxx Linker V03.00 + NoICE + sdld,  page 54.
Hexadecimal  [32-Bits]

Area                                    Addr        Size        Decimal Bytes (Attributes)
--------------------------------        ----        ----        ------- ----- ------------
_HRAM12                             00000000    00000003 =           3. bytes (ABS,CON)

      Value  Global                              Global Defined In Module
      -----  --------------------------------   ------------------------
     0000FF90  __current_bank                     Runtime
     0000FF92  __shadow_OAM_base                  Runtime

ASxxxx Linker V03.00 + NoICE + sdld,  page 55.
Hexadecimal  [32-Bits]

Area                                    Addr        Size        Decimal Bytes (Attributes)
--------------------------------        ----        ----        ------- ----- ------------
_EHL_TRAMPOLINE0                    00000000    00000011 =          17. bytes (ABS,CON)

      Value  Global                              Global Defined In Module
      -----  --------------------------------   ------------------------
     00000008  ___sdcc_bcall_ehl                  

ASxxxx Linker V03.00 + NoICE + sdld,  page 56.
Hexadecimal  [32-Bits]

Area                                    Addr        Size        Decimal Bytes (Attributes)
--------------------------------        ----        ----        ------- ----- ------------
_CODE_4                             00044000    00003FFF =       16383. bytes (REL,CON)

      Value  Global                              Global Defined In Module
      -----  --------------------------------   ------------------------
     00044000  ___func_ACTOR                      actor
     00044000  _actors_init                       actor
     0004403A  _emote_offsets                     actor
     00044049  _emote_metasprite                  actor
     00044055  _player_init                       actor
     0004406A  _deactivate_actor                  actor
     000441DB  _activate_actor                    actor
     0004431A  _activate_actors_in_row            actor
     00044411  _activate_actors_in_col            actor
     00044562  _actor_set_frames                  actor
     000445B6  _actor_set_frame_offset            actor
     000445F3  _actor_get_frame_offset            actor
     00044606  _actor_set_anim_idle               actor
     00044634  _actor_set_anim_moving             actor
     00044665  _actor_set_dir                     actor
     000446CA  _actor_at_tile                     actor
     000447A0  _actor_in_front_of_player          actor
     00044887  _actor_overlapping_player          actor
     00044B20  _actor_overlapping_bb              actor
     00044D3F  _actors_handle_player_collision    actor
     00044DCA  _check_collision_in_direction      actor
     000455BA  _bootstrap_script                  
     000455C5  ___func_scene_31_collisions        scene_31_collisions
     000455C5  _scene_31_collisions               scene_31_collisions
     00046EC5  _platform_init                     platform
     0004707C  _platform_update                   platform

ASxxxx Linker V03.00 + NoICE + sdld,  page 57.
Hexadecimal  [32-Bits]

Area                                    Addr        Size        Decimal Bytes (Attributes)
--------------------------------        ----        ----        ------- ----- ------------
_CODE_3                             00034000    00003FFE =       16382. bytes (REL,CON)

      Value  Global                              Global Defined In Module
      -----  --------------------------------   ------------------------
     00034000  _camera_init                       camera
     0003401E  _camera_reset                      camera
     0003402E  ___func_bg_blueridgestarcave_til   bg_blueridgestarcave_tilemap
     0003402E  _bg_blueridgestarcave_tilemap      bg_blueridgestarcave_tilemap
     0003592E  ___func_bg_pyramidview_tilemap_a   bg_pyramidview_tilemap_attr
     0003592E  _bg_pyramidview_tilemap_attr       bg_pyramidview_tilemap_attr
     00035B6E  ___func_scene_37_collisions        scene_37_collisions
     00035B6E  _scene_37_collisions               scene_37_collisions

ASxxxx Linker V03.00 + NoICE + sdld,  page 58.
Hexadecimal  [32-Bits]

Area                                    Addr        Size        Decimal Bytes (Attributes)
--------------------------------        ----        ----        ------- ----- ------------
_CODE_17                            00114000    00003FFF =       16383. bytes (REL,CON)

      Value  Global                              Global Defined In Module
      -----  --------------------------------   ------------------------
     00114000  _core_reset                        core
     00114075  _process_VM                        core
     0011431C  _core_run                          core
     001143FE  _printer_send_receive              gbprinter
     00114438  _printer_send_byte                 gbprinter
     00114457  _printer_send_command              gbprinter
     00114482  _printer_print_tile                gbprinter
     0011451C  _printer_wait                      gbprinter
     0011454C  _gbprinter_detect                  gbprinter
     0011456E  _gbprinter_print_overlay           gbprinter
     001147B1  _data_init                         load_save
     001147FC  _save_points                       load_save
     00114854  _data_slot_address                 load_save
     001148B8  _data_save                         load_save
     0011499E  _data_load                         load_save
     00114AAD  _data_clear                        load_save
     00114ADE  _data_peek                         load_save
     00114B8C  _trigger_reset                     trigger
     00114B9C  _trigger_interact                  trigger
     00114BDC  _trigger_activate_at               trigger
     00114C27  _trigger_at_intersection           trigger
     00114D3C  _trigger_activate_at_intersectio   trigger
     00114E7E  _trigger_at_tile                   trigger
     00114F0E  ___func_bg_blueridgewalk_tilemap   bg_blueridgewalk_tilemap
     00114F0E  _bg_blueridgewalk_tilemap          bg_blueridgewalk_tilemap
     001152FE  ___func_bg_coralslime_tileset      bg_coralslime_tileset
     001152FE  _bg_coralslime_tileset             bg_coralslime_tileset
     001156D0  ___func_bg_desert_entry_tileset    bg_desert_entry_tileset
     001156D0  _bg_desert_entry_tileset           bg_desert_entry_tileset
     00115B02  ___func_bg_forestentrance_tilema   bg_forestentrance_tilemap_at
     00115B02  _bg_forestentrance_tilemap_attr    bg_forestentrance_tilemap_at
     00115E86  ___func_bg_forestentrance_tilema   bg_forestentrance_tilemap
     00115E86  _bg_forestentrance_tilemap         bg_forestentrance_tilemap
     0011620A  ___func_bg_testpara_tilemap_attr   bg_testpara_tilemap_attr
     0011620A  _bg_testpara_tilemap_attr          bg_testpara_tilemap_attr
     00116642  ___func_bg_testpara_tilemap        bg_testpara_tilemap
     00116642  _bg_testpara_tilemap               bg_testpara_tilemap
     00116A7A  ___func_bg_testpara_tileset        bg_testpara_tileset
     00116A7A  _bg_testpara_tileset               bg_testpara_tileset
     00116EAC  ___func_scene_32_sprites           scene_32_sprites
     00116EAC  _scene_32_sprites                  scene_32_sprites
     00116EAF  ___func_scene_43_collisions        scene_43_collisions
     00116EAF  _scene_43_collisions               scene_43_collisions
     001172E7  ___func_scene_45_collisions        scene_45_collisions
     001172E7  _scene_45_collisions               scene_45_collisions
     0011766B  ___func_scene_5_collisions         scene_5_collisions
     0011766B  _scene_5_collisions                scene_5_collisions
     00117A5B  ___func_sprite_digging_animation   sprite_digging_animation_sh_
     00117A5B  _sprite_digging_animation_sh_til   sprite_digging_animation_sh_
     00117E5D  ___func_sprite_fishing_tileset     sprite_fishing_tileset
ASxxxx Linker V03.00 + NoICE + sdld,  page 59.
Hexadecimal  [32-Bits]

Area                                    Addr        Size        Decimal Bytes (Attributes)
--------------------------------        ----        ----        ------- ----- ------------
_CODE_17                            00114000    00003FFF =       16383. bytes (REL,CON)

      Value  Global                              Global Defined In Module
      -----  --------------------------------   ------------------------
     00117E5D  _sprite_fishing_tileset            sprite_fishing_tileset
ASxxxx Linker V03.00 + NoICE + sdld,  page 60.
Hexadecimal  [32-Bits]

Area                                    Addr        Size        Decimal Bytes (Attributes)
--------------------------------        ----        ----        ------- ----- ------------
_CRASH_HEADER0                      00000000    00000005 =           5. bytes (ABS,CON)

      Value  Global                              Global Defined In Module
      -----  --------------------------------   ------------------------
ASxxxx Linker V03.00 + NoICE + sdld,  page 61.
Hexadecimal  [32-Bits]

Area                                    Addr        Size        Decimal Bytes (Attributes)
--------------------------------        ----        ----        ------- ----- ------------
_CRASH_HEADER1                      00000000    00000004 =           4. bytes (ABS,CON)

      Value  Global                              Global Defined In Module
      -----  --------------------------------   ------------------------
ASxxxx Linker V03.00 + NoICE + sdld,  page 62.
Hexadecimal  [32-Bits]

Area                                    Addr        Size        Decimal Bytes (Attributes)
--------------------------------        ----        ----        ------- ----- ------------
_CODE_18                            00124000    00003FFF =       16383. bytes (REL,CON)

      Value  Global                              Global Defined In Module
      -----  --------------------------------   ------------------------
     00124000  ___HandleCrash_banked              
     00124367  ___func_VM_PALETTE                 vm_palette
     00124367  _vm_load_palette                   vm_palette
     0012451B  ___func_VM_SIO                     vm_sio
     0012451B  _vm_sio_set_mode                   vm_sio
     0012452E  _vm_sio_exchange                   vm_sio
     00124887  ___func_bg_blueridgecaveentrance   bg_blueridgecaveentrance_til
     00124887  _bg_blueridgecaveentrance_tilema   bg_blueridgecaveentrance_til
     00124B9F  ___func_bg_blueridgecaveentrance   bg_blueridgecaveentrance_til
     00124B9F  _bg_blueridgecaveentrance_tilema   bg_blueridgecaveentrance_til
     00124EB7  ___func_bg_blueridgemountaintop_   bg_blueridgemountaintop_tile
     00124EB7  _bg_blueridgemountaintop_tilemap   bg_blueridgemountaintop_tile
     001251E1  ___func_bg_blueridgemountaintop_   bg_blueridgemountaintop_tile
     001251E1  _bg_blueridgemountaintop_tilemap   bg_blueridgemountaintop_tile
     0012550B  ___func_bg_blueridgemountaintop2   bg_blueridgemountaintop2_til
     0012550B  _bg_blueridgemountaintop2_tilema   bg_blueridgemountaintop2_til
     00125835  ___func_bg_coraltree_tilemap_att   bg_coraltree_tilemap_attr
     00125835  _bg_coraltree_tilemap_attr         bg_coraltree_tilemap_attr
     00125B55  ___func_bg_coraltree_tilemap       bg_coraltree_tilemap
     00125B55  _bg_coraltree_tilemap              bg_coraltree_tilemap
     00125E75  ___func_bg_coraltunnel_tilemap     bg_coraltunnel_tilemap
     00125E75  _bg_coraltunnel_tilemap            bg_coraltunnel_tilemap
     00126195  ___func_bg_desertfork_tilemap      bg_desertfork_tilemap
     00126195  _bg_desertfork_tilemap             bg_desertfork_tilemap
     00126465  ___func_bg_forestpond_tilemap      bg_forestpond_tilemap
     00126465  _bg_forestpond_tilemap             bg_forestpond_tilemap
     00126735  ___func_bg_forestsplit_tilemap     bg_forestsplit_tilemap
     00126735  _bg_forestsplit_tilemap            bg_forestsplit_tilemap
     00126A05  ___func_scene_31_triggers          scene_31_triggers
     00126A05  _scene_31_triggers                 scene_31_triggers
     00126A1D  ___func_scene_33_collisions        scene_33_collisions
     00126A1D  _scene_33_collisions               scene_33_collisions
     00126D47  ___func_scene_34_collisions        scene_34_collisions
     00126D47  _scene_34_collisions               scene_34_collisions
     00127071  ___func_scene_35_sprites           scene_35_sprites
     00127071  _scene_35_sprites                  scene_35_sprites
     00127074  ___func_scene_39_collisions        scene_39_collisions
     00127074  _scene_39_collisions               scene_39_collisions
     00127394  ___func_scene_4_collisions         scene_4_collisions
     00127394  _scene_4_collisions                scene_4_collisions
     001276AC  ___func_scene_40_collisions        scene_40_collisions
     001276AC  _scene_40_collisions               scene_40_collisions
     001279CC  ___func_scene_46_collisions        scene_46_collisions
     001279CC  _scene_46_collisions               scene_46_collisions
     00127C9C  _pointnclick_init                  pointnclick
     00127CD5  _pointnclick_update                pointnclick

ASxxxx Linker V03.00 + NoICE + sdld,  page 63.
Hexadecimal  [32-Bits]

Area                                    Addr        Size        Decimal Bytes (Attributes)
--------------------------------        ----        ----        ------- ----- ------------
_CRASH_SCRATCH2                     00000000    000001CB =         459. bytes (ABS,CON)

      Value  Global                              Global Defined In Module
      -----  --------------------------------   ------------------------
ASxxxx Linker V03.00 + NoICE + sdld,  page 64.
Hexadecimal  [32-Bits]

Area                                    Addr        Size        Decimal Bytes (Attributes)
--------------------------------        ----        ----        ------- ----- ------------
_CODE_1                             00014000    00003FFF =       16383. bytes (REL,CON)

      Value  Global                              Global Defined In Module
      -----  --------------------------------   ------------------------
     00014000  _load_init                         data_manager
     00014013  _spritesheet_none_far              data_manager
     00014016  _load_bkg_tileset                  data_manager
     000140EF  _load_background                   data_manager
     000141ED  _load_sprite                       data_manager
     000142EA  _load_bounds                       data_manager
     0001430A  _do_load_palette                   data_manager
     0001438A  _load_scene                        data_manager
     00014C64  _load_player                       data_manager
     00014CB0  _load_emote                        data_manager
     00014CC4  _remove_LCD_ISRs                   interrupts
     00014CE5  _ui_swap_tiles                     
     00014D2F  _ui_print_make_mask_lr             
     00014D4B  _ui_print_make_mask_rl             
     00014D67  _ui_init                           ui
     00014E36  _ui_load_tiles                     ui
     00014E8D  _ui_draw_frame                     ui
     00014F21  _ui_print_reset                    ui
     00014F77  _ui_set_start_tile                 ui
     00014FA3  _ui_print_render                   ui
     00015244  _ui_draw_text_buffer_char          ui
     00015738  _ui_run_menu                       ui
     000159F6  _ui_run_modal                      ui
     00015AC5  ___func_VM_GBPRINTER               vm_gbprinter
     00015AC5  _vm_print_detect                   vm_gbprinter
     00015B17  _vm_print_overlay                  vm_gbprinter
     00015B6F  ___func_VM_SGB                     vm_sgb
     00015B6F  ___func_bg_coralmaze_tilemap_att   bg_coralmaze_tilemap_attr
     00015B6F  _bg_coralmaze_tilemap_attr         bg_coralmaze_tilemap_attr

ASxxxx Linker V03.00 + NoICE + sdld,  page 65.
Hexadecimal  [32-Bits]

Area                                    Addr        Size        Decimal Bytes (Attributes)
--------------------------------        ----        ----        ------- ----- ------------
_CODE_22                            00164000    00003021 =       12321. bytes (REL,CON)

      Value  Global                              Global Defined In Module
      -----  --------------------------------   ------------------------
     00164000  _events_init                       events
     00164040  _timers_init                       events
     00164080  _restore_sram_bank                 flasher
     001640BA  _restore_sram                      flasher
     001640D0  _save_sram                         flasher
     00164100  _input_init                        input
     00164126  _palette_init                      palette
     0016415F  _CGBZeroPalette                    palette
     00164174  _scroll_rect                       
     001641B1  _SIO_init                          sio
     001641DA  _actor_10_update                   actor_10_update
     001641F7  _actor_11_interact                 actor_11_interact
     00164231  _actor_11_update                   actor_11_update
     0016424E  _actor_12_update                   actor_12_update
     0016426B  _actor_13_update                   actor_13_update
     00164289  _actor_14_update                   actor_14_update
     001642A7  _actor_15_update                   actor_15_update
     001642C4  _actor_16_interact                 actor_16_interact
     00164303  _actor_16_update                   actor_16_update
     00164320  _actor_17_update                   actor_17_update
     0016433D  _actor_18_update                   actor_18_update
     00164363  _actor_20_update                   actor_20_update
     00164381  _actor_21_update                   actor_21_update
     0016439E  _actor_22_update                   actor_22_update
     001643BB  _actor_23_update                   actor_23_update
     001643CC  _actor_24_update                   actor_24_update
     001643F2  _actor_25_update                   actor_25_update
     0016440F  _actor_32_update                   actor_32_update
     0016442C  _actor_33_update                   actor_33_update
     00164449  ___func_bg_blueridgemountaintop    bg_blueridgemountaintop
     00164449  _bg_blueridgemountaintop           bg_blueridgemountaintop
     00164457  ___func_bg_blueridgemountaintop2   bg_blueridgemountaintop2
     00164457  _bg_blueridgemountaintop2          bg_blueridgemountaintop2
     00164465  ___func_bg_blueridgerockroom       bg_blueridgerockroom
     00164465  _bg_blueridgerockroom              bg_blueridgerockroom
     00164473  ___func_bg_blueridgestarcave       bg_blueridgestarcave
     00164473  _bg_blueridgestarcave              bg_blueridgestarcave
     00164481  ___func_bg_blueridgewalk           bg_blueridgewalk
     00164481  _bg_blueridgewalk                  bg_blueridgewalk
     0016448F  ___func_bg_cgmgsj                  bg_cgmgsj
     0016448F  _bg_cgmgsj                         bg_cgmgsj
     0016449D  ___func_bg_coralmaze               bg_coralmaze
     0016449D  _bg_coralmaze                      bg_coralmaze
     001644AB  ___func_bg_coralslime              bg_coralslime
     001644AB  _bg_coralslime                     bg_coralslime
     001644B9  ___func_bg_coralstart              bg_coralstart
     001644B9  _bg_coralstart                     bg_coralstart
     001644C7  ___func_bg_coraltree               bg_coraltree
     001644C7  _bg_coraltree                      bg_coraltree
     001644D5  ___func_bg_coraltunnel             bg_coraltunnel
ASxxxx Linker V03.00 + NoICE + sdld,  page 66.
Hexadecimal  [32-Bits]

Area                                    Addr        Size        Decimal Bytes (Attributes)
--------------------------------        ----        ----        ------- ----- ------------
_CODE_22                            00164000    00003021 =       12321. bytes (REL,CON)

      Value  Global                              Global Defined In Module
      -----  --------------------------------   ------------------------
     001644D5  _bg_coraltunnel                    bg_coraltunnel
     001644E3  ___func_bg_coralvillage            bg_coralvillage
     001644E3  _bg_coralvillage                   bg_coralvillage
     001644F1  ___func_bg_coralwell               bg_coralwell
     001644F1  _bg_coralwell                      bg_coralwell
     001644FF  ___func_bg_desert_entry            bg_desert_entry
     001644FF  _bg_desert_entry                   bg_desert_entry
     0016450D  ___func_bg_desertfork              bg_desertfork
     0016450D  _bg_desertfork                     bg_desertfork
     0016451B  ___func_bg_desertoasis             bg_desertoasis
     0016451B  _bg_desertoasis                    bg_desertoasis
     00164529  ___func_bg_deserttower             bg_deserttower
     00164529  _bg_deserttower                    bg_deserttower
     00164537  ___func_bg_ending                  bg_ending
     00164537  _bg_ending                         bg_ending
     00164545  ___func_bg_forestentrance          bg_forestentrance
     00164545  _bg_forestentrance                 bg_forestentrance
     00164553  ___func_bg_forestmaintest          bg_forestmaintest
     00164553  _bg_forestmaintest                 bg_forestmaintest
     00164561  ___func_bg_forestnautilus          bg_forestnautilus
     00164561  _bg_forestnautilus                 bg_forestnautilus
     0016456F  ___func_bg_forestpond              bg_forestpond
     0016456F  _bg_forestpond                     bg_forestpond
     0016457D  ___func_bg_forestsplit             bg_forestsplit
     0016457D  _bg_forestsplit                    bg_forestsplit
     0016458B  ___func_bg_gamelogo                bg_gamelogo
     0016458B  _bg_gamelogo                       bg_gamelogo
     00164599  ___func_bg_journalcactus           bg_journalcactus
     00164599  _bg_journalcactus                  bg_journalcactus
     001645A7  ___func_bg_journalclueless         bg_journalclueless
     001645A7  _bg_journalclueless                bg_journalclueless
     001645B5  ___func_bg_journaldrum             bg_journaldrum
     001645B5  _bg_journaldrum                    bg_journaldrum
     001645C3  ___func_bg_journalglass            bg_journalglass
     001645C3  _bg_journalglass                   bg_journalglass
     001645D1  ___func_bg_journallazy             bg_journallazy
     001645D1  _bg_journallazy                    bg_journallazy
     001645DF  ___func_bg_journalnecklace         bg_journalnecklace
     001645DF  _bg_journalnecklace                bg_journalnecklace
     001645ED  ___func_bg_journalplant            bg_journalplant
     001645ED  _bg_journalplant                   bg_journalplant
     001645FB  ___func_bg_journalpoker            bg_journalpoker
     001645FB  _bg_journalpoker                   bg_journalpoker
     00164609  ___func_bg_journalrocket           bg_journalrocket
     00164609  _bg_journalrocket                  bg_journalrocket
     00164617  ___func_bg_journalskull            bg_journalskull
     00164617  _bg_journalskull                   bg_journalskull
     00164625  ___func_bg_journalsnail            bg_journalsnail
     00164625  _bg_journalsnail                   bg_journalsnail
     00164633  ___func_bg_journalsomeguys         bg_journalsomeguys
     00164633  _bg_journalsomeguys                bg_journalsomeguys
ASxxxx Linker V03.00 + NoICE + sdld,  page 67.
Hexadecimal  [32-Bits]

Area                                    Addr        Size        Decimal Bytes (Attributes)
--------------------------------        ----        ----        ------- ----- ------------
_CODE_22                            00164000    00003021 =       12321. bytes (REL,CON)

      Value  Global                              Global Defined In Module
      -----  --------------------------------   ------------------------
     00164641  ___func_bg_journalswerve           bg_journalswerve
     00164641  _bg_journalswerve                  bg_journalswerve
     0016464F  ___func_bg_journaltrap             bg_journaltrap
     0016464F  _bg_journaltrap                    bg_journaltrap
     0016465D  ___func_bg_journalwalkie           bg_journalwalkie
     0016465D  _bg_journalwalkie                  bg_journalwalkie
     0016466B  ___func_bg_journascoop             bg_journascoop
     0016466B  _bg_journascoop                    bg_journascoop
     00164679  ___func_bg_knrcandjunepresents     bg_knrcandjunepresents
     00164679  _bg_knrcandjunepresents            bg_knrcandjunepresents
     00164687  ___func_bg_mountain_entrance       bg_mountain_entrance
     00164687  _bg_mountain_entrance              bg_mountain_entrance
     00164695  ___func_bg_opendesert              bg_opendesert
     00164695  _bg_opendesert                     bg_opendesert
     001646A3  ___func_bg_penguinrocxk            bg_penguinrocxk
     001646A3  _bg_penguinrocxk                   bg_penguinrocxk
     001646B1  ___func_bg_pondtest                bg_pondtest
     001646B1  _bg_pondtest                       bg_pondtest
     001646BF  ___func_bg_pyramidtop              bg_pyramidtop
     001646BF  _bg_pyramidtop                     bg_pyramidtop
     001646CD  ___func_bg_pyramidview             bg_pyramidview
     001646CD  _bg_pyramidview                    bg_pyramidview
     001646DB  ___func_bg_starclearingnew         bg_starclearingnew
     001646DB  _bg_starclearingnew                bg_starclearingnew
     001646E9  ___func_bg_testpara                bg_testpara
     001646E9  _bg_testpara                       bg_testpara
     001646F7  ___func_cursor_image               cursor_image
     001646F7  _cursor_image                      cursor_image
     00164707  ___func_emote_love                 emote_love
     00164707  _emote_love                        emote_love
     00164747  ___func_emote_pause                emote_pause
     00164747  _emote_pause                       emote_pause
     00164787  ___func_emote_question             emote_question
     00164787  _emote_question                    emote_question
     001647C7  ___func_emote_shock                emote_shock
     001647C7  _emote_shock                       emote_shock
     00164807  ___func_palette_0                  palette_0
     00164807  _palette_0                         palette_0
     0016484A  ___func_palette_1                  palette_1
     0016484A  _palette_1                         palette_1
     0016488D  ___func_scene_0_triggers           scene_0_triggers
     0016488D  _scene_0_triggers                  scene_0_triggers
     0016489D  ___func_scene_0                    scene_0
     0016489D  _scene_0                           scene_0
     001648D8  _scene_10_init                     scene_10_init
     001648F9  ___func_scene_10_triggers          scene_10_triggers
     001648F9  _scene_10_triggers                 scene_10_triggers
     00164909  ___func_scene_10                   scene_10
     00164909  _scene_10                          scene_10
     00164944  _scene_11_init                     scene_11_init
     00164965  ___func_scene_11_triggers          scene_11_triggers
ASxxxx Linker V03.00 + NoICE + sdld,  page 68.
Hexadecimal  [32-Bits]

Area                                    Addr        Size        Decimal Bytes (Attributes)
--------------------------------        ----        ----        ------- ----- ------------
_CODE_22                            00164000    00003021 =       12321. bytes (REL,CON)

      Value  Global                              Global Defined In Module
      -----  --------------------------------   ------------------------
     00164965  _scene_11_triggers                 scene_11_triggers
     00164975  ___func_scene_11                   scene_11
     00164975  _scene_11                          scene_11
     001649B0  _scene_12_init                     scene_12_init
     001649D1  ___func_scene_12_triggers          scene_12_triggers
     001649D1  _scene_12_triggers                 scene_12_triggers
     001649E1  ___func_scene_12                   scene_12
     001649E1  _scene_12                          scene_12
     00164A1C  ___func_scene_13_triggers          scene_13_triggers
     00164A1C  _scene_13_triggers                 scene_13_triggers
     00164A2C  ___func_scene_13                   scene_13
     00164A2C  _scene_13                          scene_13
     00164A67  _scene_14_init                     scene_14_init
     00164A88  ___func_scene_14_triggers          scene_14_triggers
     00164A88  _scene_14_triggers                 scene_14_triggers
     00164A98  ___func_scene_14                   scene_14
     00164A98  _scene_14                          scene_14
     00164AD3  _scene_15_init                     scene_15_init
     00164AF4  ___func_scene_15_triggers          scene_15_triggers
     00164AF4  _scene_15_triggers                 scene_15_triggers
     00164B04  ___func_scene_15                   scene_15
     00164B04  _scene_15                          scene_15
     00164B3F  _scene_16_init                     scene_16_init
     00164B55  ___func_scene_16_triggers          scene_16_triggers
     00164B55  _scene_16_triggers                 scene_16_triggers
     00164B65  ___func_scene_16                   scene_16
     00164B65  _scene_16                          scene_16
     00164BA0  _scene_17_init                     scene_17_init
     00164BC1  ___func_scene_17_triggers          scene_17_triggers
     00164BC1  _scene_17_triggers                 scene_17_triggers
     00164BD1  ___func_scene_17                   scene_17
     00164BD1  _scene_17                          scene_17
     00164C0C  _scene_18_init                     scene_18_init
     00164C2D  ___func_scene_18_triggers          scene_18_triggers
     00164C2D  _scene_18_triggers                 scene_18_triggers
     00164C3D  ___func_scene_18                   scene_18
     00164C3D  _scene_18                          scene_18
     00164C78  _scene_19_init                     scene_19_init
     00164C99  ___func_scene_19_triggers          scene_19_triggers
     00164C99  _scene_19_triggers                 scene_19_triggers
     00164CA9  ___func_scene_19                   scene_19
     00164CA9  _scene_19                          scene_19
     00164CE4  _scene_2_init                      scene_2_init
     00164D05  ___func_scene_2_triggers           scene_2_triggers
     00164D05  _scene_2_triggers                  scene_2_triggers
     00164D15  ___func_scene_2                    scene_2
     00164D15  _scene_2                           scene_2
     00164D50  _scene_20_init                     scene_20_init
     00164D71  ___func_scene_20_triggers          scene_20_triggers
     00164D71  _scene_20_triggers                 scene_20_triggers
     00164D81  ___func_scene_20                   scene_20
ASxxxx Linker V03.00 + NoICE + sdld,  page 69.
Hexadecimal  [32-Bits]

Area                                    Addr        Size        Decimal Bytes (Attributes)
--------------------------------        ----        ----        ------- ----- ------------
_CODE_22                            00164000    00003021 =       12321. bytes (REL,CON)

      Value  Global                              Global Defined In Module
      -----  --------------------------------   ------------------------
     00164D81  _scene_20                          scene_20
     00164DBC  _scene_21_init                     scene_21_init
     00164DD2  ___func_scene_21                   scene_21
     00164DD2  _scene_21                          scene_21
     00164E0D  _scene_22_init                     scene_22_init
     00164E2E  ___func_scene_22_triggers          scene_22_triggers
     00164E2E  _scene_22_triggers                 scene_22_triggers
     00164E3E  ___func_scene_22                   scene_22
     00164E3E  _scene_22                          scene_22
     00164E79  _scene_23_init                     scene_23_init
     00164E9A  ___func_scene_23_triggers          scene_23_triggers
     00164E9A  _scene_23_triggers                 scene_23_triggers
     00164EAA  ___func_scene_23                   scene_23
     00164EAA  _scene_23                          scene_23
     00164EE5  _scene_24_init                     scene_24_init
     00164F06  ___func_scene_24_triggers          scene_24_triggers
     00164F06  _scene_24_triggers                 scene_24_triggers
     00164F16  ___func_scene_24                   scene_24
     00164F16  _scene_24                          scene_24
     00164F51  _scene_25_init                     scene_25_init
     00164F72  ___func_scene_25_triggers          scene_25_triggers
     00164F72  _scene_25_triggers                 scene_25_triggers
     00164F82  ___func_scene_25                   scene_25
     00164F82  _scene_25                          scene_25
     00164FBD  _scene_28_init                     scene_28_init
     00165003  ___func_scene_28                   scene_28
     00165003  _scene_28                          scene_28
     0016503E  _scene_29_init                     scene_29_init
     0016508C  ___func_scene_29                   scene_29
     0016508C  _scene_29                          scene_29
     001650C7  _scene_3_init                      scene_3_init
     00165115  ___func_scene_3                    scene_3
     00165115  _scene_3                           scene_3
     00165150  ___func_scene_30_actors            scene_30_actors
     00165150  _scene_30_actors                   scene_30_actors
     001651B8  _scene_30_init                     scene_30_init
     001651D6  ___func_scene_30                   scene_30
     001651D6  _scene_30                          scene_30
     00165211  _scene_31_init                     scene_31_init
     00165227  ___func_scene_31                   scene_31
     00165227  _scene_31                          scene_31
     00165262  ___func_scene_32_actors            scene_32_actors
     00165262  _scene_32_actors                   scene_32_actors
     00165296  _scene_32_init                     scene_32_init
     001652AC  ___func_scene_32_triggers          scene_32_triggers
     001652AC  _scene_32_triggers                 scene_32_triggers
     001652B4  ___func_scene_32                   scene_32
     001652B4  _scene_32                          scene_32
     001652EF  _scene_33_init                     scene_33_init
     00165305  ___func_scene_33_triggers          scene_33_triggers
     00165305  _scene_33_triggers                 scene_33_triggers
ASxxxx Linker V03.00 + NoICE + sdld,  page 70.
Hexadecimal  [32-Bits]

Area                                    Addr        Size        Decimal Bytes (Attributes)
--------------------------------        ----        ----        ------- ----- ------------
_CODE_22                            00164000    00003021 =       12321. bytes (REL,CON)

      Value  Global                              Global Defined In Module
      -----  --------------------------------   ------------------------
     00165315  ___func_scene_33                   scene_33
     00165315  _scene_33                          scene_33
     00165350  ___func_scene_34_actors            scene_34_actors
     00165350  _scene_34_actors                   scene_34_actors
     001653B8  _scene_34_init                     scene_34_init
     001653CE  ___func_scene_34_triggers          scene_34_triggers
     001653CE  _scene_34_triggers                 scene_34_triggers
     001653D6  ___func_scene_34                   scene_34
     001653D6  _scene_34                          scene_34
     00165411  _scene_35_init                     scene_35_init
     00165427  ___func_scene_35_triggers          scene_35_triggers
     00165427  _scene_35_triggers                 scene_35_triggers
     00165437  ___func_scene_35                   scene_35
     00165437  _scene_35                          scene_35
     00165472  ___func_scene_36_actors            scene_36_actors
     00165472  _scene_36_actors                   scene_36_actors
     001654A6  _scene_36_init                     scene_36_init
     001654BC  ___func_scene_36_triggers          scene_36_triggers
     001654BC  _scene_36_triggers                 scene_36_triggers
     001654CC  ___func_scene_36                   scene_36
     001654CC  _scene_36                          scene_36
     00165507  ___func_scene_37_actors            scene_37_actors
     00165507  _scene_37_actors                   scene_37_actors
     0016553B  _scene_37_init                     scene_37_init
     00165551  ___func_scene_37_triggers          scene_37_triggers
     00165551  _scene_37_triggers                 scene_37_triggers
     00165569  ___func_scene_37                   scene_37
     00165569  _scene_37                          scene_37
     001655A4  ___func_scene_38_actors            scene_38_actors
     001655A4  _scene_38_actors                   scene_38_actors
     001655D8  _scene_38_init                     scene_38_init
     001655EE  ___func_scene_38_triggers          scene_38_triggers
     001655EE  _scene_38_triggers                 scene_38_triggers
     001655FE  ___func_scene_38                   scene_38
     001655FE  _scene_38                          scene_38
     00165639  _scene_39_init                     scene_39_init
     0016564F  ___func_scene_39_triggers          scene_39_triggers
     0016564F  _scene_39_triggers                 scene_39_triggers
     0016565F  ___func_scene_39                   scene_39
     0016565F  _scene_39                          scene_39
     0016569A  _scene_4_init                      scene_4_init
     001656B0  ___func_scene_4_triggers           scene_4_triggers
     001656B0  _scene_4_triggers                  scene_4_triggers
     001656C0  ___func_scene_4                    scene_4
     001656C0  _scene_4                           scene_4
     001656FB  ___func_scene_40_actors            scene_40_actors
     001656FB  _scene_40_actors                   scene_40_actors
     0016572F  _scene_40_init                     scene_40_init
     00165745  ___func_scene_40_sprites           scene_40_sprites
     00165745  _scene_40_sprites                  scene_40_sprites
     00165748  ___func_scene_40_triggers          scene_40_triggers
ASxxxx Linker V03.00 + NoICE + sdld,  page 71.
Hexadecimal  [32-Bits]

Area                                    Addr        Size        Decimal Bytes (Attributes)
--------------------------------        ----        ----        ------- ----- ------------
_CODE_22                            00164000    00003021 =       12321. bytes (REL,CON)

      Value  Global                              Global Defined In Module
      -----  --------------------------------   ------------------------
     00165748  _scene_40_triggers                 scene_40_triggers
     00165758  ___func_scene_40                   scene_40
     00165758  _scene_40                          scene_40
     00165793  _scene_41_init                     scene_41_init
     001657A9  ___func_scene_41_triggers          scene_41_triggers
     001657A9  _scene_41_triggers                 scene_41_triggers
     001657C1  ___func_scene_41                   scene_41
     001657C1  _scene_41                          scene_41
     001657FC  ___func_scene_42_actors            scene_42_actors
     001657FC  _scene_42_actors                   scene_42_actors
     00165830  _scene_42_init                     scene_42_init
     00165846  ___func_scene_42_sprites           scene_42_sprites
     00165846  _scene_42_sprites                  scene_42_sprites
     00165849  ___func_scene_42_triggers          scene_42_triggers
     00165849  _scene_42_triggers                 scene_42_triggers
     00165859  ___func_scene_42                   scene_42
     00165859  _scene_42                          scene_42
     00165894  _scene_43_init                     scene_43_init
     001658AA  ___func_scene_43_triggers          scene_43_triggers
     001658AA  _scene_43_triggers                 scene_43_triggers
     001658BA  ___func_scene_43                   scene_43
     001658BA  _scene_43                          scene_43
     001658F5  ___func_scene_44_actors            scene_44_actors
     001658F5  _scene_44_actors                   scene_44_actors
     00165929  _scene_44_init                     scene_44_init
     0016593F  ___func_scene_44_triggers          scene_44_triggers
     0016593F  _scene_44_triggers                 scene_44_triggers
     00165947  ___func_scene_44                   scene_44
     00165947  _scene_44                          scene_44
     00165982  _scene_45_init                     scene_45_init
     00165998  ___func_scene_45_triggers          scene_45_triggers
     00165998  _scene_45_triggers                 scene_45_triggers
     001659A8  ___func_scene_45                   scene_45
     001659A8  _scene_45                          scene_45
     001659E3  _scene_46_init                     scene_46_init
     001659F9  ___func_scene_46_triggers          scene_46_triggers
     001659F9  _scene_46_triggers                 scene_46_triggers
     00165A11  ___func_scene_46                   scene_46
     00165A11  _scene_46                          scene_46
     00165A4C  ___func_scene_47_actors            scene_47_actors
     00165A4C  _scene_47_actors                   scene_47_actors
     00165A80  _scene_47_init                     scene_47_init
     00165A96  ___func_scene_47_sprites           scene_47_sprites
     00165A96  _scene_47_sprites                  scene_47_sprites
     00165A99  ___func_scene_47_triggers          scene_47_triggers
     00165A99  _scene_47_triggers                 scene_47_triggers
     00165AA9  ___func_scene_47                   scene_47
     00165AA9  _scene_47                          scene_47
     00165AE4  ___func_scene_48_actors            scene_48_actors
     00165AE4  _scene_48_actors                   scene_48_actors
     00165B18  _scene_48_init                     scene_48_init
ASxxxx Linker V03.00 + NoICE + sdld,  page 72.
Hexadecimal  [32-Bits]

Area                                    Addr        Size        Decimal Bytes (Attributes)
--------------------------------        ----        ----        ------- ----- ------------
_CODE_22                            00164000    00003021 =       12321. bytes (REL,CON)

      Value  Global                              Global Defined In Module
      -----  --------------------------------   ------------------------
     00165B2E  ___func_scene_48_triggers          scene_48_triggers
     00165B2E  _scene_48_triggers                 scene_48_triggers
     00165B36  ___func_scene_48                   scene_48
     00165B36  _scene_48                          scene_48
     00165B71  ___func_scene_49_actors            scene_49_actors
     00165B71  _scene_49_actors                   scene_49_actors
     00165BA5  _scene_49_init                     scene_49_init
     00165BBB  ___func_scene_49_sprites           scene_49_sprites
     00165BBB  _scene_49_sprites                  scene_49_sprites
     00165BBE  ___func_scene_49_triggers          scene_49_triggers
     00165BBE  _scene_49_triggers                 scene_49_triggers
     00165BCE  ___func_scene_49                   scene_49
     00165BCE  _scene_49                          scene_49
     00165C09  _scene_5_init                      scene_5_init
     00165C1F  ___func_scene_5_triggers           scene_5_triggers
     00165C1F  _scene_5_triggers                  scene_5_triggers
     00165C2F  ___func_scene_5                    scene_5
     00165C2F  _scene_5                           scene_5
     00165C6A  ___func_scene_50_actors            scene_50_actors
     00165C6A  _scene_50_actors                   scene_50_actors
     00165C9E  _scene_50_init                     scene_50_init
     00165CB4  ___func_scene_50_sprites           scene_50_sprites
     00165CB4  _scene_50_sprites                  scene_50_sprites
     00165CB7  ___func_scene_50_triggers          scene_50_triggers
     00165CB7  _scene_50_triggers                 scene_50_triggers
     00165CBF  ___func_scene_50                   scene_50
     00165CBF  _scene_50                          scene_50
     00165CFA  _scene_51_init                     scene_51_init
     00165D10  ___func_scene_51_triggers          scene_51_triggers
     00165D10  _scene_51_triggers                 scene_51_triggers
     00165D20  ___func_scene_51                   scene_51
     00165D20  _scene_51                          scene_51
     00165D5B  _scene_52_init                     scene_52_init
     00165D71  ___func_scene_52_triggers          scene_52_triggers
     00165D71  _scene_52_triggers                 scene_52_triggers
     00165D89  ___func_scene_52                   scene_52
     00165D89  _scene_52                          scene_52
     00165DC4  _scene_53_init                     scene_53_init
     00165DDA  ___func_scene_53_triggers          scene_53_triggers
     00165DDA  _scene_53_triggers                 scene_53_triggers
     00165DEA  ___func_scene_53                   scene_53
     00165DEA  _scene_53                          scene_53
     00165E25  ___func_scene_54_actors            scene_54_actors
     00165E25  _scene_54_actors                   scene_54_actors
     00165E59  _scene_54_init                     scene_54_init
     00165E6F  ___func_scene_54_sprites           scene_54_sprites
     00165E6F  _scene_54_sprites                  scene_54_sprites
     00165E72  ___func_scene_54_triggers          scene_54_triggers
     00165E72  _scene_54_triggers                 scene_54_triggers
     00165E7A  ___func_scene_54                   scene_54
     00165E7A  _scene_54                          scene_54
ASxxxx Linker V03.00 + NoICE + sdld,  page 73.
Hexadecimal  [32-Bits]

Area                                    Addr        Size        Decimal Bytes (Attributes)
--------------------------------        ----        ----        ------- ----- ------------
_CODE_22                            00164000    00003021 =       12321. bytes (REL,CON)

      Value  Global                              Global Defined In Module
      -----  --------------------------------   ------------------------
     00165EB5  _scene_6_init                      scene_6_init
     00165F03  ___func_scene_6                    scene_6
     00165F03  _scene_6                           scene_6
     00165F3E  ___func_scene_7_actors             scene_7_actors
     00165F3E  _scene_7_actors                    scene_7_actors
     00165F72  _scene_7_init                      scene_7_init
     00165F88  ___func_scene_7_sprites            scene_7_sprites
     00165F88  _scene_7_sprites                   scene_7_sprites
     00165F8B  ___func_scene_7_triggers           scene_7_triggers
     00165F8B  _scene_7_triggers                  scene_7_triggers
     00165FA3  ___func_scene_7                    scene_7
     00165FA3  _scene_7                           scene_7
     00165FDE  _scene_8_init                      scene_8_init
     00165FFF  ___func_scene_8_triggers           scene_8_triggers
     00165FFF  _scene_8_triggers                  scene_8_triggers
     0016601F  ___func_scene_8                    scene_8
     0016601F  _scene_8                           scene_8
     0016605A  _scene_9_init                      scene_9_init
     0016607B  ___func_scene_9_triggers           scene_9_triggers
     0016607B  _scene_9_triggers                  scene_9_triggers
     0016608B  ___func_scene_9                    scene_9
     0016608B  _scene_9                           scene_9
     001660C6  _script_engine_init                
     0016610E  _script_input_2                    script_input_2
     0016617F  _script_input_3                    script_input_3
     001661A5  ___func_sprite_1_tileset           sprite_1_tileset
     001661A5  _sprite_1_tileset                  sprite_1_tileset
     001661E7  ___func_sprite_1                   sprite_1
     001661E7  _sprite_1_metasprite_0             sprite_1
     001661F3  _sprite_1_metasprites              sprite_1
     001661F5  _sprite_1_animations               sprite_1
     00166205  _sprite_1_animations_lookup        sprite_1
     00166207  _sprite_1                          sprite_1
     0016621A  ___func_sprite_2_tileset           sprite_2_tileset
     0016621A  _sprite_2_tileset                  sprite_2_tileset
     0016625C  ___func_sprite_2                   sprite_2
     0016625C  _sprite_2_metasprite_0             sprite_2
     00166268  _sprite_2_metasprites              sprite_2
     0016626A  _sprite_2_animations               sprite_2
     0016627A  _sprite_2_animations_lookup        sprite_2
     0016627C  _sprite_2                          sprite_2
     0016628F  ___func_sprite_3_tileset           sprite_3_tileset
     0016628F  _sprite_3_tileset                  sprite_3_tileset
     001662D1  ___func_sprite_3                   sprite_3
     001662D1  _sprite_3_metasprite_0             sprite_3
     001662DD  _sprite_3_metasprites              sprite_3
     001662DF  _sprite_3_animations               sprite_3
     001662EF  _sprite_3_animations_lookup        sprite_3
     001662F1  _sprite_3                          sprite_3
     00166304  ___func_sprite_4_tileset           sprite_4_tileset
     00166304  _sprite_4_tileset                  sprite_4_tileset
ASxxxx Linker V03.00 + NoICE + sdld,  page 74.
Hexadecimal  [32-Bits]

Area                                    Addr        Size        Decimal Bytes (Attributes)
--------------------------------        ----        ----        ------- ----- ------------
_CODE_22                            00164000    00003021 =       12321. bytes (REL,CON)

      Value  Global                              Global Defined In Module
      -----  --------------------------------   ------------------------
     00166346  ___func_sprite_4                   sprite_4
     00166346  _sprite_4_metasprite_0             sprite_4
     00166352  _sprite_4_metasprites              sprite_4
     00166354  _sprite_4_animations               sprite_4
     00166364  _sprite_4_animations_lookup        sprite_4
     00166366  _sprite_4                          sprite_4
     00166379  ___func_sprite_5_tileset           sprite_5_tileset
     00166379  _sprite_5_tileset                  sprite_5_tileset
     001663BB  ___func_sprite_5                   sprite_5
     001663BB  _sprite_5_metasprite_0             sprite_5
     001663C7  _sprite_5_metasprites              sprite_5
     001663C9  _sprite_5_animations               sprite_5
     001663D9  _sprite_5_animations_lookup        sprite_5
     001663DB  _sprite_5                          sprite_5
     001663EE  ___func_sprite_6_tileset           sprite_6_tileset
     001663EE  _sprite_6_tileset                  sprite_6_tileset
     00166430  ___func_sprite_6                   sprite_6
     00166430  _sprite_6_metasprite_0             sprite_6
     0016643C  _sprite_6_metasprites              sprite_6
     0016643E  _sprite_6_animations               sprite_6
     0016644E  _sprite_6_animations_lookup        sprite_6
     00166450  _sprite_6                          sprite_6
     00166463  ___func_sprite_cursor_sheet        sprite_cursor_sheet
     00166463  _sprite_cursor_sheet_metasprite_   sprite_cursor_sheet
     0016646F  _sprite_cursor_sheet_metasprite_   sprite_cursor_sheet
     0016647B  _sprite_cursor_sheet_metasprites   sprite_cursor_sheet
     0016647F  _sprite_cursor_sheet_animations    sprite_cursor_sheet
     0016648F  _sprite_cursor_sheet_animations_   sprite_cursor_sheet
     00166491  _sprite_cursor_sheet               sprite_cursor_sheet
     001664A4  ___func_sprite_digspot_tileset     sprite_digspot_tileset
     001664A4  _sprite_digspot_tileset            sprite_digspot_tileset
     001664E6  ___func_sprite_digspot             sprite_digspot
     001664E6  _sprite_digspot_metasprite_0       sprite_digspot
     001664F2  _sprite_digspot_metasprites        sprite_digspot
     001664F4  _sprite_digspot_animations         sprite_digspot
     00166504  _sprite_digspot_animations_looku   sprite_digspot
     00166506  _sprite_digspot                    sprite_digspot
     00166519  ___func_sprite_digspotopen_tiles   sprite_digspotopen_tileset
     00166519  _sprite_digspotopen_tileset        sprite_digspotopen_tileset
     0016655B  ___func_sprite_digspotopen         sprite_digspotopen
     0016655B  _sprite_digspotopen_metasprite_0   sprite_digspotopen
     00166567  _sprite_digspotopen_metasprites    sprite_digspotopen
     00166569  _sprite_digspotopen_animations     sprite_digspotopen
     00166579  _sprite_digspotopen_animations_l   sprite_digspotopen
     0016657B  _sprite_digspotopen                sprite_digspotopen
     0016658E  ___func_sprite_floortreasure       sprite_floortreasure
     0016658E  _sprite_floortreasure_metasprite   sprite_floortreasure
     0016659A  _sprite_floortreasure_metasprite   sprite_floortreasure
     001665A6  _sprite_floortreasure_metasprite   sprite_floortreasure
     001665AA  _sprite_floortreasure_animations   sprite_floortreasure
     001665BA  _sprite_floortreasure_animations   sprite_floortreasure
ASxxxx Linker V03.00 + NoICE + sdld,  page 75.
Hexadecimal  [32-Bits]

Area                                    Addr        Size        Decimal Bytes (Attributes)
--------------------------------        ----        ----        ------- ----- ------------
_CODE_22                            00164000    00003021 =       12321. bytes (REL,CON)

      Value  Global                              Global Defined In Module
      -----  --------------------------------   ------------------------
     001665BC  _sprite_floortreasure              sprite_floortreasure
     001665CF  ___func_sprite_premenu             sprite_premenu
     001665CF  _sprite_premenu                    sprite_premenu
     001665DD  ___func_sprite_rock_tileset        sprite_rock_tileset
     001665DD  _sprite_rock_tileset               sprite_rock_tileset
     0016661F  ___func_sprite_rock                sprite_rock
     0016661F  _sprite_rock_metasprite_0          sprite_rock
     0016662B  _sprite_rock_metasprites           sprite_rock
     0016662D  _sprite_rock_animations            sprite_rock
     0016663D  _sprite_rock_animations_lookup     sprite_rock
     0016663F  _sprite_rock                       sprite_rock
     00166652  ___func_sprite_stupid_tileset      sprite_stupid_tileset
     00166652  _sprite_stupid_tileset             sprite_stupid_tileset
     00166694  ___func_sprite_stupid              sprite_stupid
     00166694  _sprite_stupid_metasprite_0        sprite_stupid
     001666A8  _sprite_stupid_metasprite_1        sprite_stupid
     001666BC  _sprite_stupid_metasprite_2        sprite_stupid
     001666C0  _sprite_stupid_metasprites         sprite_stupid
     001666C6  _sprite_stupid_animations          sprite_stupid
     001666D6  _sprite_stupid_animations_lookup   sprite_stupid
     001666D8  _sprite_stupid                     sprite_stupid
     001666EB  _trigger_1_interact                trigger_1_interact
     00166711  _trigger_12_interact               trigger_12_interact
     00166737  _trigger_20_interact               trigger_20_interact
     0016675D  _trigger_21_interact               trigger_21_interact
     00166783  _trigger_30_interact               trigger_30_interact
     001667A9  _trigger_31_interact               trigger_31_interact
     001667CF  _trigger_40_interact               trigger_40_interact
     001667F5  _trigger_41_interact               trigger_41_interact
     0016681B  _trigger_47_interact               trigger_47_interact
     00166841  _trigger_48_interact               trigger_48_interact
     00166867  _trigger_49_interact               trigger_49_interact
     0016688D  _trigger_50_interact               trigger_50_interact
     001668B3  _trigger_51_interact               trigger_51_interact
     001668D9  _trigger_52_interact               trigger_52_interact
     001668FF  _trigger_53_interact               trigger_53_interact
     00166925  _trigger_54_interact               trigger_54_interact
     0016694B  _trigger_55_interact               trigger_55_interact
     00166971  _trigger_56_interact               trigger_56_interact
     00166997  _trigger_57_interact               trigger_57_interact
     001669BD  _trigger_58_interact               trigger_58_interact
     001669E3  _trigger_59_interact               trigger_59_interact
     00166A09  _trigger_60_interact               trigger_60_interact
     00166A2F  _trigger_61_interact               trigger_61_interact
     00166A55  _trigger_62_interact               trigger_62_interact
     00166A7B  _trigger_63_interact               trigger_63_interact
     00166AA1  _trigger_64_interact               trigger_64_interact
     00166AC7  _trigger_65_interact               trigger_65_interact
     00166AED  _trigger_66_interact               trigger_66_interact
     00166B13  _trigger_67_interact               trigger_67_interact
     00166B39  _trigger_68_interact               trigger_68_interact
ASxxxx Linker V03.00 + NoICE + sdld,  page 76.
Hexadecimal  [32-Bits]

Area                                    Addr        Size        Decimal Bytes (Attributes)
--------------------------------        ----        ----        ------- ----- ------------
_CODE_22                            00164000    00003021 =       12321. bytes (REL,CON)

      Value  Global                              Global Defined In Module
      -----  --------------------------------   ------------------------
     00166B5F  _trigger_69_interact               trigger_69_interact
     00166B85  _trigger_70_interact               trigger_70_interact
     00166BAB  _trigger_71_interact               trigger_71_interact
     00166BD1  _trigger_72_interact               trigger_72_interact
     00166BF7  _trigger_74_interact               trigger_74_interact
     00166C5A  _trigger_75_interact               trigger_75_interact
     00166C80  _trigger_76_interact               trigger_76_interact
     00166CA6  _trigger_77_interact               trigger_77_interact
     00166CCC  _trigger_78_interact               trigger_78_interact
     00166CF2  _trigger_79_interact               trigger_79_interact
     00166D18  _trigger_80_interact               trigger_80_interact
     00166D3E  _trigger_81_interact               trigger_81_interact
     00166D64  _trigger_82_interact               trigger_82_interact
     00166D8A  _trigger_83_interact               trigger_83_interact
     00166DB0  _trigger_84_interact               trigger_84_interact
     00166DD6  _trigger_85_interact               trigger_85_interact
     00166DFC  _trigger_86_interact               trigger_86_interact
     00166E22  _trigger_87_interact               trigger_87_interact
     00166E48  _trigger_88_interact               trigger_88_interact
     00166E6E  _trigger_89_interact               trigger_89_interact
     00166E94  _trigger_90_interact               trigger_90_interact
     00166EBA  _trigger_91_interact               trigger_91_interact
     00166EE0  _trigger_92_interact               trigger_92_interact
     00166F06  _trigger_93_interact               trigger_93_interact
     00166F2C  _trigger_94_interact               trigger_94_interact
     00166F52  _trigger_95_interact               trigger_95_interact
     00166F78  _trigger_96_interact               trigger_96_interact
     00166F9E  _trigger_97_interact               trigger_97_interact
     00166FC4  _trigger_98_interact               trigger_98_interact
     00166FEA  _trigger_99_interact               trigger_99_interact
     00167010  _logo_init                         logo
     00167020  _logo_update                       logo

ASxxxx Linker V03.00 + NoICE + sdld,  page 77.
Hexadecimal  [32-Bits]

Area                                    Addr        Size        Decimal Bytes (Attributes)
--------------------------------        ----        ----        ------- ----- ------------
_CODE_19                            00134000    00004000 =       16384. bytes (REL,CON)

      Value  Global                              Global Defined In Module
      -----  --------------------------------   ------------------------
     00134000  _CGBFadeToWhiteStep                fade_manager
     00134039  _CGBFadeToBlackStep                fade_manager
     00134074  _ApplyPaletteChangeColor           fade_manager
     001340B8  _fade_speeds                       fade_manager
     001340BF  _DMGFadeToWhiteStep                fade_manager
     001340E2  _DMGFadeToBlackStep                fade_manager
     00134107  _ApplyPaletteChangeDMG             fade_manager
     0013417E  _fade_init                         fade_manager
     001341A6  _fade_in                           fade_manager
     001341D7  _fade_out                          fade_manager
     00134209  _fade_update                       fade_manager
     00134263  _fade_applypalettechange           fade_manager
     0013427D  _fade_setspeed                     fade_manager
     0013428D  _fade_in_modal                     fade_manager
     001342A7  _fade_out_modal                    fade_manager
     001342C1  _set_sgb_border                    sgb_border
     001344F2  ___func_VM_CAMERA                  vm_camera
     001344F2  _vm_camera_move_to                 vm_camera
     00134645  _vm_camera_set_pos                 vm_camera
     0013468C  _camera_shake_frames               vm_camera
     00134784  ___func_bg_blueridgerockroom_til   bg_blueridgerockroom_tilemap
     00134784  _bg_blueridgerockroom_tilemap_at   bg_blueridgerockroom_tilemap
     001348EC  ___func_bg_blueridgerockroom_til   bg_blueridgerockroom_tilemap
     001348EC  _bg_blueridgerockroom_tilemap      bg_blueridgerockroom_tilemap
     00134A54  ___func_bg_cgmgsj_tilemap          bg_cgmgsj_tilemap
     00134A54  _bg_cgmgsj_tilemap                 bg_cgmgsj_tilemap
     00134BBC  ___func_bg_coralslime_tilemap      bg_coralslime_tilemap
     00134BBC  _bg_coralslime_tilemap             bg_coralslime_tilemap
     00134D24  ___func_bg_coraltunnel_tileset     bg_coraltunnel_tileset
     00134D24  _bg_coraltunnel_tileset            bg_coraltunnel_tileset
     00134FC6  ___func_bg_coralwell_tilemap       bg_coralwell_tilemap
     00134FC6  _bg_coralwell_tilemap              bg_coralwell_tilemap
     0013512E  ___func_bg_desert_entry_tilemap_   bg_desert_entry_tilemap_attr
     0013512E  _bg_desert_entry_tilemap_attr      bg_desert_entry_tilemap_attr
     001353AE  ___func_bg_desert_entry_tilemap    bg_desert_entry_tilemap
     001353AE  _bg_desert_entry_tilemap           bg_desert_entry_tilemap
     0013562E  ___func_bg_desertoasis_tilemap     bg_desertoasis_tilemap
     0013562E  _bg_desertoasis_tilemap            bg_desertoasis_tilemap
     00135796  ___func_bg_deserttower_tilemap     bg_deserttower_tilemap
     00135796  _bg_deserttower_tilemap            bg_deserttower_tilemap
     001358FE  ___func_bg_ending_tilemap          bg_ending_tilemap
     001358FE  _bg_ending_tilemap                 bg_ending_tilemap
     00135A66  ___func_bg_forestnautilus_tilema   bg_forestnautilus_tilemap_at
     00135A66  _bg_forestnautilus_tilemap_attr    bg_forestnautilus_tilemap_at
     00135C5E  ___func_bg_forestnautilus_tilema   bg_forestnautilus_tilemap
     00135C5E  _bg_forestnautilus_tilemap         bg_forestnautilus_tilemap
     00135E56  ___func_bg_gamelogo_tilemap        bg_gamelogo_tilemap
     00135E56  _bg_gamelogo_tilemap               bg_gamelogo_tilemap
     00135FBE  ___func_bg_journalcactus_tilemap   bg_journalcactus_tilemap
     00135FBE  _bg_journalcactus_tilemap          bg_journalcactus_tilemap
ASxxxx Linker V03.00 + NoICE + sdld,  page 78.
Hexadecimal  [32-Bits]

Area                                    Addr        Size        Decimal Bytes (Attributes)
--------------------------------        ----        ----        ------- ----- ------------
_CODE_19                            00134000    00004000 =       16384. bytes (REL,CON)

      Value  Global                              Global Defined In Module
      -----  --------------------------------   ------------------------
     00136126  ___func_bg_journalclueless_tilem   bg_journalclueless_tilemap
     00136126  _bg_journalclueless_tilemap        bg_journalclueless_tilemap
     0013628E  ___func_bg_journaldrum_tilemap     bg_journaldrum_tilemap
     0013628E  _bg_journaldrum_tilemap            bg_journaldrum_tilemap
     001363F6  ___func_bg_journalglass_tilemap    bg_journalglass_tilemap
     001363F6  _bg_journalglass_tilemap           bg_journalglass_tilemap
     0013655E  ___func_bg_journallazy_tilemap     bg_journallazy_tilemap
     0013655E  _bg_journallazy_tilemap            bg_journallazy_tilemap
     001366C6  ___func_bg_journalnecklace_tilem   bg_journalnecklace_tilemap
     001366C6  _bg_journalnecklace_tilemap        bg_journalnecklace_tilemap
     0013682E  ___func_bg_journalplant_tilemap    bg_journalplant_tilemap
     0013682E  _bg_journalplant_tilemap           bg_journalplant_tilemap
     00136996  ___func_bg_journalpoker_tilemap    bg_journalpoker_tilemap
     00136996  _bg_journalpoker_tilemap           bg_journalpoker_tilemap
     00136AFE  ___func_bg_journalrocket_tilemap   bg_journalrocket_tilemap
     00136AFE  _bg_journalrocket_tilemap          bg_journalrocket_tilemap
     00136C66  ___func_bg_pyramidview_tilemap     bg_pyramidview_tilemap
     00136C66  _bg_pyramidview_tilemap            bg_pyramidview_tilemap
     00136EA6  ___func_scene_21_triggers          scene_21_triggers
     00136EA6  _scene_21_triggers                 scene_21_triggers
     00136EAE  ___func_scene_36_sprites           scene_36_sprites
     00136EAE  _scene_36_sprites                  scene_36_sprites
     00136EB1  ___func_scene_48_collisions        scene_48_collisions
     00136EB1  _scene_48_collisions               scene_48_collisions
     001370A9  ___func_scene_50_collisions        scene_50_collisions
     001370A9  _scene_50_collisions               scene_50_collisions
     00137379  ___func_scene_51_collisions        scene_51_collisions
     00137379  _scene_51_collisions               scene_51_collisions
     001375F9  ___func_scene_52_collisions        scene_52_collisions
     001375F9  _scene_52_collisions               scene_52_collisions
     001378C9  ___func_scene_53_collisions        scene_53_collisions
     001378C9  _scene_53_collisions               scene_53_collisions
     00137B09  ___func_sprite_cute_small_guy_sh   sprite_cute_small_guy_sheet
     00137B09  _sprite_cute_small_guy_sheet_met   sprite_cute_small_guy_sheet
     00137B2D  _sprite_cute_small_guy_sheet_met   sprite_cute_small_guy_sheet
     00137B49  _sprite_cute_small_guy_sheet_met   sprite_cute_small_guy_sheet
     00137B6D  _sprite_cute_small_guy_sheet_met   sprite_cute_small_guy_sheet
     00137B89  _sprite_cute_small_guy_sheet_met   sprite_cute_small_guy_sheet
     00137BAD  _sprite_cute_small_guy_sheet_met   sprite_cute_small_guy_sheet
     00137BD1  _sprite_cute_small_guy_sheet_met   sprite_cute_small_guy_sheet
     00137BED  _sprite_cute_small_guy_sheet_met   sprite_cute_small_guy_sheet
     00137C09  _sprite_cute_small_guy_sheet_met   sprite_cute_small_guy_sheet
     00137C25  _sprite_cute_small_guy_sheet_met   sprite_cute_small_guy_sheet
     00137C49  _sprite_cute_small_guy_sheet_met   sprite_cute_small_guy_sheet
     00137C6D  _sprite_cute_small_guy_sheet_met   sprite_cute_small_guy_sheet
     00137C89  _sprite_cute_small_guy_sheet_met   sprite_cute_small_guy_sheet
     00137CA5  _sprite_cute_small_guy_sheet_met   sprite_cute_small_guy_sheet
     00137CC1  _sprite_cute_small_guy_sheet_met   sprite_cute_small_guy_sheet
     00137CE9  _sprite_cute_small_guy_sheet_ani   sprite_cute_small_guy_sheet
     00137CF9  _sprite_cute_small_guy_sheet_ani   sprite_cute_small_guy_sheet
     00137CFB  _sprite_cute_small_guy_sheet       sprite_cute_small_guy_sheet
ASxxxx Linker V03.00 + NoICE + sdld,  page 79.
Hexadecimal  [32-Bits]

Area                                    Addr        Size        Decimal Bytes (Attributes)
--------------------------------        ----        ----        ------- ----- ------------
_CODE_19                            00134000    00004000 =       16384. bytes (REL,CON)

      Value  Global                              Global Defined In Module
      -----  --------------------------------   ------------------------
     00137D0E  _trigger_7_interact                trigger_7_interact
     00137E87  _trigger_8_interact                trigger_8_interact

ASxxxx Linker V03.00 + NoICE + sdld,  page 80.
Hexadecimal  [32-Bits]

Area                                    Addr        Size        Decimal Bytes (Attributes)
--------------------------------        ----        ----        ------- ----- ------------
_CODE_21                            00154000    00004000 =       16384. bytes (REL,CON)

      Value  Global                              Global Defined In Module
      -----  --------------------------------   ------------------------
     00154068  _save_sram_banks                   
     001540F0  _erase_flash                       
     00154106  _music_init_driver                 music_manager
     0015415D  _music_init_events                 music_manager
     00154199  _music_events_poll                 music_manager
     001541C3  _music_pause                       music_manager
     001541E8  ___func_VM_LOAD_SAVE               vm_load_save
     001541E8  _vm_save_clear                     vm_load_save
     001541F7  _vm_save_peek                      vm_load_save
     00154279  ___func_VM_PROJECTILE              vm_projectiles
     00154279  _vm_projectile_launch              vm_projectiles
     001542BA  _vm_projectile_load_type           vm_projectiles
     00154365  ___func_VM_RTC                     vm_rtc
     00154365  _vm_rtc_latch                      vm_rtc
     0015436D  _vm_rtc_get                        vm_rtc
     001543D6  _vm_rtc_set                        vm_rtc
     0015443E  _vm_rtc_start                      vm_rtc
     00154461  _itoa_fmt                          vm_ui_a
     0015449A  .utoa_fmt                          vm_ui_a
     00154544  _actor_1_interact                  actor_1_interact
     00154640  _actor_10_interact                 actor_10_interact
     001546DA  _actor_12_interact                 actor_12_interact
     0015476B  _actor_13_interact                 actor_13_interact
     00154869  _actor_14_interact                 actor_14_interact
     00154967  _actor_15_interact                 actor_15_interact
     001549F9  _actor_17_interact                 actor_17_interact
     00154AFB  _actor_18_interact                 actor_18_interact
     00154BF6  _actor_19_interact                 actor_19_interact
     00154D00  _actor_2_update                    actor_2_update
     00154D91  _actor_20_interact                 actor_20_interact
     00154E8D  _actor_21_interact                 actor_21_interact
     00154F87  _actor_22_interact                 actor_22_interact
     0015501A  _actor_23_interact                 actor_23_interact
     001550AB  _actor_24_interact                 actor_24_interact
     001551A5  _actor_25_interact                 actor_25_interact
     001552A1  _actor_27_interact                 actor_27_interact
     00155339  _actor_28_interact                 actor_28_interact
     001553D1  _actor_29_interact                 actor_29_interact
     00155469  _actor_3_update                    actor_3_update
     001554FA  _actor_30_interact                 actor_30_interact
     00155592  _actor_31_interact                 actor_31_interact
     0015562A  _actor_32_interact                 actor_32_interact
     001556BA  _actor_33_interact                 actor_33_interact
     00155748  _actor_4_update                    actor_4_update
     001557D9  _actor_5_update                    actor_5_update
     0015586A  ___func_bg_ambercave_tileset       bg_ambercave_tileset
     0015586A  _bg_ambercave_tileset              bg_ambercave_tileset
     001558FC  ___func_bg_blueridgerockroom_til   bg_blueridgerockroom_tileset
     001558FC  _bg_blueridgerockroom_tileset      bg_blueridgerockroom_tileset
     001559FE  ___func_frame_image                frame_image
ASxxxx Linker V03.00 + NoICE + sdld,  page 81.
Hexadecimal  [32-Bits]

Area                                    Addr        Size        Decimal Bytes (Attributes)
--------------------------------        ----        ----        ------- ----- ------------
_CODE_21                            00154000    00004000 =       16384. bytes (REL,CON)

      Value  Global                              Global Defined In Module
      -----  --------------------------------   ------------------------
     001559FE  _frame_image                       frame_image
     00155A8E  ___func_scene_35_actors            scene_35_actors
     00155A8E  _scene_35_actors                   scene_35_actors
     00155BC6  ___func_scene_38_sprites           scene_38_sprites
     00155BC6  _scene_38_sprites                  scene_38_sprites
     00155BC9  ___func_scene_8_actors             scene_8_actors
     00155BC9  _scene_8_actors                    scene_8_actors
     00155C99  _script_input_0                    script_input_0
     00155D26  _script_input_1                    script_input_1
     00155DBC  ___func_sprite_actor_animated_ti   sprite_actor_animated_tilese
     00155DBC  _sprite_actor_animated_tileset     sprite_actor_animated_tilese
     00155EFE  ___func_sprite_actor_animated      sprite_actor_animated
     00155EFE  _sprite_actor_animated_metasprit   sprite_actor_animated
     00155F0A  _sprite_actor_animated_metasprit   sprite_actor_animated
     00155F16  _sprite_actor_animated_metasprit   sprite_actor_animated
     00155F22  _sprite_actor_animated_metasprit   sprite_actor_animated
     00155F2E  _sprite_actor_animated_metasprit   sprite_actor_animated
     00155F3A  _sprite_actor_animated_metasprit   sprite_actor_animated
     00155F46  _sprite_actor_animated_metasprit   sprite_actor_animated
     00155F52  _sprite_actor_animated_metasprit   sprite_actor_animated
     00155F5E  _sprite_actor_animated_metasprit   sprite_actor_animated
     00155F76  _sprite_actor_animated_animation   sprite_actor_animated
     00155F86  _sprite_actor_animated_animation   sprite_actor_animated
     00155F88  _sprite_actor_animated             sprite_actor_animated
     00155F9B  ___func_sprite_cursor_sheet_tile   sprite_cursor_sheet_tileset
     00155F9B  _sprite_cursor_sheet_tileset       sprite_cursor_sheet_tileset
     0015601D  ___func_sprite_fishing             sprite_fishing
     0015601D  _sprite_fishing_metasprite_0       sprite_fishing
     00156021  _sprite_fishing_metasprite_1       sprite_fishing
     00156055  _sprite_fishing_metasprite_2       sprite_fishing
     00156089  _sprite_fishing_metasprite_3       sprite_fishing
     001560BD  _sprite_fishing_metasprite_4       sprite_fishing
     001560F1  _sprite_fishing_metasprites        sprite_fishing
     001560FB  _sprite_fishing_animations         sprite_fishing
     0015610B  _sprite_fishing_animations_looku   sprite_fishing
     0015610D  _sprite_fishing                    sprite_fishing
     00156120  ___func_sprite_floortreasure_til   sprite_floortreasure_tileset
     00156120  _sprite_floortreasure_tileset      sprite_floortreasure_tileset
     001561A2  _trigger_10_interact               trigger_10_interact
     001562BB  _trigger_11_interact               trigger_11_interact
     001563D4  _trigger_13_interact               trigger_13_interact
     001564ED  _trigger_15_interact               trigger_15_interact
     00156606  _trigger_19_interact               trigger_19_interact
     0015674A  _trigger_22_interact               trigger_22_interact
     00156863  _trigger_23_interact               trigger_23_interact
     0015697C  _trigger_24_interact               trigger_24_interact
     00156A95  _trigger_25_interact               trigger_25_interact
     00156BAE  _trigger_26_interact               trigger_26_interact
     00156CC7  _trigger_27_interact               trigger_27_interact
     00156DE0  _trigger_28_interact               trigger_28_interact
     00156EF9  _trigger_29_interact               trigger_29_interact
ASxxxx Linker V03.00 + NoICE + sdld,  page 82.
Hexadecimal  [32-Bits]

Area                                    Addr        Size        Decimal Bytes (Attributes)
--------------------------------        ----        ----        ------- ----- ------------
_CODE_21                            00154000    00004000 =       16384. bytes (REL,CON)

      Value  Global                              Global Defined In Module
      -----  --------------------------------   ------------------------
     00157012  _trigger_32_interact               trigger_32_interact
     0015712B  _trigger_33_interact               trigger_33_interact
     00157244  _trigger_34_interact               trigger_34_interact
     0015735D  _trigger_35_interact               trigger_35_interact
     00157476  _trigger_36_interact               trigger_36_interact
     0015758F  _trigger_37_interact               trigger_37_interact
     001576A8  _trigger_38_interact               trigger_38_interact
     001577C1  _trigger_39_interact               trigger_39_interact
     001578DA  _trigger_42_interact               trigger_42_interact
     001579F3  _trigger_43_interact               trigger_43_interact
     00157B0C  _trigger_44_interact               trigger_44_interact
     00157C25  _trigger_45_interact               trigger_45_interact
     00157D3E  _trigger_46_interact               trigger_46_interact
     00157E57  _trigger_73_interact               trigger_73_interact
     00157EE7  _trigger_9_interact                trigger_9_interact

ASxxxx Linker V03.00 + NoICE + sdld,  page 83.
Hexadecimal  [32-Bits]

Area                                    Addr        Size        Decimal Bytes (Attributes)
--------------------------------        ----        ----        ------- ----- ------------
_HEADER_SIO0                        00000000    00000004 =           4. bytes (ABS,CON)

      Value  Global                              Global Defined In Module
      -----  --------------------------------   ------------------------
ASxxxx Linker V03.00 + NoICE + sdld,  page 84.
Hexadecimal  [32-Bits]

Area                                    Addr        Size        Decimal Bytes (Attributes)
--------------------------------        ----        ----        ------- ----- ------------
_HEADER_TIMER0                      00000000    00000004 =           4. bytes (ABS,CON)

      Value  Global                              Global Defined In Module
      -----  --------------------------------   ------------------------
ASxxxx Linker V03.00 + NoICE + sdld,  page 85.
Hexadecimal  [32-Bits]

Area                                    Addr        Size        Decimal Bytes (Attributes)
--------------------------------        ----        ----        ------- ----- ------------
_CODE_16                            00104000    00004000 =       16384. bytes (REL,CON)

      Value  Global                              Global Defined In Module
      -----  --------------------------------   ------------------------
     00104000  _parallax_init                     parallax
     00104024  _actor_26_interact                 actor_26_interact
     00104568  ___func_bg_ambercave_tilemap_att   bg_ambercave_tilemap_attr
     00104568  _bg_ambercave_tilemap_attr         bg_ambercave_tilemap_attr
     00104B08  ___func_bg_ambercave_tilemap       bg_ambercave_tilemap
     00104B08  _bg_ambercave_tilemap              bg_ambercave_tilemap
     001050A8  ___func_bg_blueridgewalk_tileset   bg_blueridgewalk_tileset
     001050A8  _bg_blueridgewalk_tileset          bg_blueridgewalk_tileset
     0010561A  ___func_bg_coralvillage_tilemap    bg_coralvillage_tilemap
     0010561A  _bg_coralvillage_tilemap           bg_coralvillage_tilemap
     00105B1A  ___func_bg_coralwell_tileset       bg_coralwell_tileset
     00105B1A  _bg_coralwell_tileset              bg_coralwell_tileset
     00105F5C  ___func_bg_desertfork_tilemap_at   bg_desertfork_tilemap_attr
     00105F5C  _bg_desertfork_tilemap_attr        bg_desertfork_tilemap_attr
     0010622C  ___func_bg_forestpond_tileset      bg_forestpond_tileset
     0010622C  _bg_forestpond_tileset             bg_forestpond_tileset
     001066DE  ___func_bg_mountain_entrance_til   bg_mountain_entrance_tilemap
     001066DE  _bg_mountain_entrance_tilemap      bg_mountain_entrance_tilemap
     00106BDE  ___func_scene_30_collisions        scene_30_collisions
     00106BDE  _scene_30_collisions               scene_30_collisions
     001070DE  ___func_scene_42_collisions        scene_42_collisions
     001070DE  _scene_42_collisions               scene_42_collisions
     001075DE  ___func_scene_49_collisions        scene_49_collisions
     001075DE  _scene_49_collisions               scene_49_collisions
     00107B7E  ___func_sprite_cute_small_guy_sh   sprite_cute_small_guy_sheet_
     00107B7E  _sprite_cute_small_guy_sheet_til   sprite_cute_small_guy_sheet_

ASxxxx Linker V03.00 + NoICE + sdld,  page 86.
Hexadecimal  [32-Bits]

Area                                    Addr        Size        Decimal Bytes (Attributes)
--------------------------------        ----        ----        ------- ----- ------------
_CODE_14                            000E4000    00004000 =       16384. bytes (REL,CON)

      Value  Global                              Global Defined In Module
      -----  --------------------------------   ------------------------
     000E4000  _projectiles_init                  projectiles
     000E4040  _projectile_launch                 projectiles
     000E4449  _scroll_init                       scroll
     000E4473  _scroll_reset                      scroll
     000E4493  _scroll_update                     scroll
     000E45AA  _scroll_viewport                   scroll
     000E4A58  _scroll_repaint                    scroll
     000E4A68  _scroll_render_rows                scroll
     000E4AF0  _scroll_queue_row                  scroll
     000E4B15  _scroll_queue_col                  scroll
     000E4B61  ___func_VM_UI                      vm_ui
     000E4B61  _vm_display_text                   vm_ui
     000E4BCF  _vm_switch_text_layer              vm_ui
     000E4BE9  _vm_overlay_setpos                 vm_ui
     000E4C03  _vm_overlay_wait                   vm_ui
     000E4C94  _vm_overlay_move_to                vm_ui
     000E4CD8  _vm_overlay_set_scroll             vm_ui
     000E4D15  _vm_overlay_clear                  vm_ui
     000E4DEE  _vm_overlay_show                   vm_ui
     000E4E3C  _vm_choice                         vm_ui
     000E4F57  _vm_set_font                       vm_ui
     000E4F88  _vm_overlay_scroll                 vm_ui
     000E4FE8  _vm_overlay_set_submap             vm_ui
     000E5058  _vm_overlay_set_submap_ex          vm_ui
     000E515B  _vm_overlay_set_map                vm_ui
     000E52BF  _vm_set_text_sound                 vm_ui
     000E52D8  ___func_bg_blueridgestarcave_til   bg_blueridgestarcave_tileset
     000E52D8  _bg_blueridgestarcave_tileset      bg_blueridgestarcave_tileset
     000E5B0A  ___func_bg_coralvillage_tileset    bg_coralvillage_tileset
     000E5B0A  _bg_coralvillage_tileset           bg_coralvillage_tileset
     000E62FC  ___func_bg_gamelogo_tileset        bg_gamelogo_tileset
     000E62FC  _bg_gamelogo_tileset               bg_gamelogo_tileset
     000E6A7E  ___func_scene_13_actors            scene_13_actors
     000E6A7E  _scene_13_actors                   scene_13_actors
     000E6AB2  _adventure_init                    adventure
     000E6AC7  _adventure_update                  adventure
     000E71DE  _shmup_init                        shmup
     000E727A  _shmup_update                      shmup
     000E78F9  _topdown_init                      topdown
     000E7990  _topdown_update                    topdown

ASxxxx Linker V03.00 + NoICE + sdld,  page 87.
Hexadecimal  [32-Bits]

Area                                    Addr        Size        Decimal Bytes (Attributes)
--------------------------------        ----        ----        ------- ----- ------------
_CODE_5                             00054000    00003FFF =       16383. bytes (REL,CON)

      Value  Global                              Global Defined In Module
      -----  --------------------------------   ------------------------
     00054000  ___func_VM_ACTOR                   vm_actor
     00054000  _vm_actor_move_to                  vm_actor
     0005499D  _vm_actor_move_cancel              vm_actor
     000549D3  _vm_actor_activate                 vm_actor
     00054A25  _vm_actor_deactivate               vm_actor
     00054A76  _vm_actor_terminate_update         vm_actor
     00054ABD  _vm_actor_set_dir                  vm_actor
     00054B06  _vm_actor_set_anim                 vm_actor
     00054B93  _vm_actor_set_pos                  vm_actor
     00054C0D  _vm_actor_get_pos                  vm_actor
     00054C7C  _vm_actor_get_dir                  vm_actor
     00054CF6  _vm_actor_get_angle                vm_actor
     00054D77  _vm_actor_emote                    vm_actor
     00054E3B  _vm_actor_set_bounds               vm_actor
     00054E99  _vm_actor_set_spritesheet          vm_actor
     00054F68  _vm_actor_replace_tile             vm_actor
     00054FD2  _vm_actor_set_anim_tick            vm_actor
     00055010  _vm_actor_set_move_speed           vm_actor
     0005504E  _vm_actor_set_anim_frame           vm_actor
     00055092  _vm_actor_get_anim_frame           vm_actor
     000550DB  _vm_actor_set_anim_set             vm_actor
     00055168  _vm_actor_set_spritesheet_by_ref   vm_actor
     00055276  _vm_actor_set_flags                vm_actor
     00055324  ___func_bg_ending_tileset          bg_ending_tileset
     00055324  _bg_ending_tileset                 bg_ending_tileset
     00055AE6  ___func_bg_forestmaintest_tilema   bg_forestmaintest_tilemap_at
     00055AE6  _bg_forestmaintest_tilemap_attr    bg_forestmaintest_tilemap_at
     00056D66  ___func_bg_forestmaintest_tilema   bg_forestmaintest_tilemap
     00056D66  _bg_forestmaintest_tilemap         bg_forestmaintest_tilemap
     00057FE6  _spritesheet_none_metasprite       spritesheet_none
     00057FEA  _spritesheet_none_metasprites      spritesheet_none
     00057FEC  _spritesheet_none                  spritesheet_none

ASxxxx Linker V03.00 + NoICE + sdld,  page 88.
Hexadecimal  [32-Bits]

Area                                    Addr        Size        Decimal Bytes (Attributes)
--------------------------------        ----        ----        ------- ----- ------------
_CODE_9                             00094000    00004000 =       16384. bytes (REL,CON)

      Value  Global                              Global Defined In Module
      -----  --------------------------------   ------------------------
     00094000  ___func_VM_GAMEBOY                 vm_gameboy
     00094000  _vm_set_sprites_visible            vm_gameboy
     00094017  _vm_input_wait                     vm_gameboy
     00094040  _vm_context_prepare                vm_gameboy
     0009406B  _vm_input_attach                   vm_gameboy
     00094081  _vm_input_detach                   vm_gameboy
     00094095  _vm_input_get                      vm_gameboy
     000940C9  _vm_fade                           vm_gameboy
     000940FB  _vm_timer_prepare                  vm_gameboy
     00094126  _vm_timer_set                      vm_gameboy
     00094141  _vm_timer_stop                     vm_gameboy
     00094155  _vm_timer_reset                    vm_gameboy
     0009416C  _vm_get_tile_xy                    vm_gameboy
     00094255  _vm_replace_tile                   vm_gameboy
     000942FE  _vm_poll                           vm_gameboy
     000943D0  _vm_set_sprite_mode                vm_gameboy
     000943E4  _vm_replace_tile_xy                vm_gameboy
     00094506  _vm_rumble                         vm_gameboy
     00094526  _vm_load_tiles                     vm_gameboy
     0009453B  _vm_load_tileset                   vm_gameboy
     00094658  ___func_bg_ambercave               bg_ambercave
     00094658  _bg_ambercave                      bg_ambercave
     00094666  ___func_bg_coralmaze_tileset       bg_coralmaze_tileset
     00094666  _bg_coralmaze_tileset              bg_coralmaze_tileset
     000951B8  ___func_bg_journalnecklace_tiles   bg_journalnecklace_tileset
     000951B8  _bg_journalnecklace_tileset        bg_journalnecklace_tileset
     00095D2A  ___func_bg_journalpoker_tileset    bg_journalpoker_tileset
     00095D2A  _bg_journalpoker_tileset           bg_journalpoker_tileset
     000968BC  ___func_bg_journalswerve_tileset   bg_journalswerve_tileset
     000968BC  _bg_journalswerve_tileset          bg_journalswerve_tileset
     0009744E  ___func_bg_starclearingnew_tiles   bg_starclearingnew_tileset
     0009744E  _bg_starclearingnew_tileset        bg_starclearingnew_tileset

ASxxxx Linker V03.00 + NoICE + sdld,  page 89.
Hexadecimal  [32-Bits]

Area                                    Addr        Size        Decimal Bytes (Attributes)
--------------------------------        ----        ----        ------- ----- ------------
_CODE_20                            00144000    00003FFF =       16383. bytes (REL,CON)

      Value  Global                              Global Defined In Module
      -----  --------------------------------   ------------------------
     00144000  ___func_VM_MATH                    vm_math
     00144000  _vm_sin_scale                      vm_math
     001440A2  _vm_cos_scale                      vm_math
     00144146  ___func_VM_MUSIC                   vm_music
     00144146  _vm_music_play                     vm_music
     0014418A  _vm_music_stop                     vm_music
     001441AC  _vm_music_mute                     vm_music
     001441E2  _vm_music_routine                  vm_music
     00144209  _vm_music_setpos                   vm_music
     00144213  _vm_sound_mastervol                vm_music
     00144219  _vm_sfx_play                       vm_music
     0014428C  ___func_bg_journalskull_tilemap    bg_journalskull_tilemap
     0014428C  _bg_journalskull_tilemap           bg_journalskull_tilemap
     001443F4  ___func_bg_journalsnail_tilemap    bg_journalsnail_tilemap
     001443F4  _bg_journalsnail_tilemap           bg_journalsnail_tilemap
     0014455C  ___func_bg_journalsomeguys_tilem   bg_journalsomeguys_tilemap
     0014455C  _bg_journalsomeguys_tilemap        bg_journalsomeguys_tilemap
     001446C4  ___func_bg_journalswerve_tilemap   bg_journalswerve_tilemap
     001446C4  _bg_journalswerve_tilemap          bg_journalswerve_tilemap
     0014482C  ___func_bg_journaltrap_tilemap     bg_journaltrap_tilemap
     0014482C  _bg_journaltrap_tilemap            bg_journaltrap_tilemap
     00144994  ___func_bg_journalwalkie_tilemap   bg_journalwalkie_tilemap
     00144994  _bg_journalwalkie_tilemap          bg_journalwalkie_tilemap
     00144AFC  ___func_bg_journascoop_tilemap     bg_journascoop_tilemap
     00144AFC  _bg_journascoop_tilemap            bg_journascoop_tilemap
     00144C64  ___func_bg_knrcandjunepresents_t   bg_knrcandjunepresents_tilem
     00144C64  _bg_knrcandjunepresents_tilemap    bg_knrcandjunepresents_tilem
     00144DCC  ___func_bg_pondtest_tilemap        bg_pondtest_tilemap
     00144DCC  _bg_pondtest_tilemap               bg_pondtest_tilemap
     00144F34  ___func_bg_pyramidtop_tilemap      bg_pyramidtop_tilemap
     00144F34  _bg_pyramidtop_tilemap             bg_pyramidtop_tilemap
     0014509C  ___func_scene_0_collisions         scene_0_collisions
     0014509C  _scene_0_collisions                scene_0_collisions
     00145204  ___func_scene_10_collisions        scene_10_collisions
     00145204  _scene_10_collisions               scene_10_collisions
     0014536C  ___func_scene_11_collisions        scene_11_collisions
     0014536C  _scene_11_collisions               scene_11_collisions
     001454D4  ___func_scene_12_collisions        scene_12_collisions
     001454D4  _scene_12_collisions               scene_12_collisions
     0014563C  ___func_scene_14_collisions        scene_14_collisions
     0014563C  _scene_14_collisions               scene_14_collisions
     001457A4  ___func_scene_15_collisions        scene_15_collisions
     001457A4  _scene_15_collisions               scene_15_collisions
     0014590C  ___func_scene_16_collisions        scene_16_collisions
     0014590C  _scene_16_collisions               scene_16_collisions
     00145A74  ___func_scene_17_collisions        scene_17_collisions
     00145A74  _scene_17_collisions               scene_17_collisions
     00145BDC  ___func_scene_18_collisions        scene_18_collisions
     00145BDC  _scene_18_collisions               scene_18_collisions
     00145D44  ___func_scene_19_collisions        scene_19_collisions
ASxxxx Linker V03.00 + NoICE + sdld,  page 90.
Hexadecimal  [32-Bits]

Area                                    Addr        Size        Decimal Bytes (Attributes)
--------------------------------        ----        ----        ------- ----- ------------
_CODE_20                            00144000    00003FFF =       16383. bytes (REL,CON)

      Value  Global                              Global Defined In Module
      -----  --------------------------------   ------------------------
     00145D44  _scene_19_collisions               scene_19_collisions
     00145EAC  ___func_scene_2_collisions         scene_2_collisions
     00145EAC  _scene_2_collisions                scene_2_collisions
     00146014  ___func_scene_20_collisions        scene_20_collisions
     00146014  _scene_20_collisions               scene_20_collisions
     0014617C  ___func_scene_21_actors            scene_21_actors
     0014617C  _scene_21_actors                   scene_21_actors
     001461B0  ___func_scene_21_collisions        scene_21_collisions
     001461B0  _scene_21_collisions               scene_21_collisions
     00146318  ___func_scene_22_collisions        scene_22_collisions
     00146318  _scene_22_collisions               scene_22_collisions
     00146480  ___func_scene_23_collisions        scene_23_collisions
     00146480  _scene_23_collisions               scene_23_collisions
     001465E8  ___func_scene_24_collisions        scene_24_collisions
     001465E8  _scene_24_collisions               scene_24_collisions
     00146750  ___func_scene_25_collisions        scene_25_collisions
     00146750  _scene_25_collisions               scene_25_collisions
     001468B8  ___func_scene_28_collisions        scene_28_collisions
     001468B8  _scene_28_collisions               scene_28_collisions
     00146A20  ___func_scene_29_collisions        scene_29_collisions
     00146A20  _scene_29_collisions               scene_29_collisions
     00146B88  ___func_scene_3_collisions         scene_3_collisions
     00146B88  _scene_3_collisions                scene_3_collisions
     00146CF0  ___func_scene_35_collisions        scene_35_collisions
     00146CF0  _scene_35_collisions               scene_35_collisions
     00146E58  ___func_scene_41_collisions        scene_41_collisions
     00146E58  _scene_41_collisions               scene_41_collisions
     00146FC0  ___func_scene_44_collisions        scene_44_collisions
     00146FC0  _scene_44_collisions               scene_44_collisions
     00147128  ___func_scene_54_collisions        scene_54_collisions
     00147128  _scene_54_collisions               scene_54_collisions
     00147290  ___func_scene_6_collisions         scene_6_collisions
     00147290  _scene_6_collisions                scene_6_collisions
     001473F8  ___func_scene_7_collisions         scene_7_collisions
     001473F8  _scene_7_collisions                scene_7_collisions
     00147560  ___func_scene_8_collisions         scene_8_collisions
     00147560  _scene_8_collisions                scene_8_collisions
     001476C8  ___func_scene_9_collisions         scene_9_collisions
     001476C8  _scene_9_collisions                scene_9_collisions
     00147830  ___func_sprite_digging_animation   sprite_digging_animation_sh
     00147830  _sprite_digging_animation_sh_met   sprite_digging_animation_sh
     00147854  _sprite_digging_animation_sh_met   sprite_digging_animation_sh
     00147878  _sprite_digging_animation_sh_met   sprite_digging_animation_sh
     0014789C  _sprite_digging_animation_sh_met   sprite_digging_animation_sh
     001478C0  _sprite_digging_animation_sh_met   sprite_digging_animation_sh
     001478E4  _sprite_digging_animation_sh_met   sprite_digging_animation_sh
     00147908  _sprite_digging_animation_sh_met   sprite_digging_animation_sh
     0014792C  _sprite_digging_animation_sh_met   sprite_digging_animation_sh
     00147950  _sprite_digging_animation_sh_met   sprite_digging_animation_sh
     00147962  _sprite_digging_animation_sh_ani   sprite_digging_animation_sh
     00147972  _sprite_digging_animation_sh_ani   sprite_digging_animation_sh
ASxxxx Linker V03.00 + NoICE + sdld,  page 91.
Hexadecimal  [32-Bits]

Area                                    Addr        Size        Decimal Bytes (Attributes)
--------------------------------        ----        ----        ------- ----- ------------
_CODE_20                            00144000    00003FFF =       16383. bytes (REL,CON)

      Value  Global                              Global Defined In Module
      -----  --------------------------------   ------------------------
     00147974  _sprite_digging_animation_sh       sprite_digging_animation_sh
     00147987  ___func_sprite_premenu_tilemap     sprite_premenu_tilemap
     00147987  _sprite_premenu_tilemap            sprite_premenu_tilemap
     00147AEF  _trigger_14_interact               trigger_14_interact
     00147C33  _trigger_16_interact               trigger_16_interact
     00147D77  _trigger_17_interact               trigger_17_interact
     00147EBB  _trigger_18_interact               trigger_18_interact
ASxxxx Linker V03.00 + NoICE + sdld,  page 92.
Hexadecimal  [32-Bits]

Area                                    Addr        Size        Decimal Bytes (Attributes)
--------------------------------        ----        ----        ------- ----- ------------
_CODE_7                             00074000    00003FFF =       16383. bytes (REL,CON)

      Value  Global                              Global Defined In Module
      -----  --------------------------------   ------------------------
     00074000  ___func_VM_SCENE                   vm_scene
     00074000  _vm_scene_push                     vm_scene
     00074085  _vm_scene_pop                      vm_scene
     00074093  _vm_scene_pop_all                  vm_scene
     0007409E  _vm_scene_stack_reset              vm_scene
     000740A7  ___func_bg_coralstart_tilemap      bg_coralstart_tilemap
     000740A7  _bg_coralstart_tilemap             bg_coralstart_tilemap
     00074E53  ___func_bg_coraltree_tileset       bg_coraltree_tileset
     00074E53  _bg_coraltree_tileset              bg_coraltree_tileset
     00075A45  ___func_bg_forestmaintest_tilese   bg_forestmaintest_tileset
     00075A45  _bg_forestmaintest_tileset         bg_forestmaintest_tileset
     00076647  ___func_bg_pyramidtop_tileset      bg_pyramidtop_tileset
     00076647  _bg_pyramidtop_tileset             bg_pyramidtop_tileset
     00077249  ___func_scene_36_collisions        scene_36_collisions
     00077249  _scene_36_collisions               scene_36_collisions
     00077FF5  _trigger_4_interact                trigger_4_interact

ASxxxx Linker V03.00 + NoICE + sdld,  page 93.
Hexadecimal  [32-Bits]

Area                                    Addr        Size        Decimal Bytes (Attributes)
--------------------------------        ----        ----        ------- ----- ------------
_CODE_6                             00064000    00003FFE =       16382. bytes (REL,CON)

      Value  Global                              Global Defined In Module
      -----  --------------------------------   ------------------------
     00064000  ___func_VM_MAIN                    vm
     00064000  _vm_call                           vm
     00064042  _vm_ret                            vm
     000640A1  _vm_call_far                       vm
     0006411E  _vm_ret_far                        vm
     0006418D  _vm_push                           vm
     000641B7  _vm_pop                            vm
     000641F2  _vm_loop                           vm
     0006427F  _vm_jump                           vm
     0006428B  _wait_frames                       vm
     00064302  _vm_invoke                         vm
     0006442E  _vm_join                           vm
     00064487  _vm_terminate                      vm
     000644B4  _vm_if                             vm
     000645F8  _vm_if_const                       vm
     0006470C  _vm_push_value                     vm
     0006475E  _vm_push_value_ind                 vm
     000647D3  _vm_push_reference                 vm
     0006482A  _vm_reserve                        vm
     00064857  _vm_set                            vm
     000648B8  _vm_set_const                      vm
     000648E4  _vm_get_tlocal                     vm
     00064971  _vm_test_terminate                 vm
     0006497C  _vm_idle                           vm
     00064988  _vm_get_uint8                      vm
     000649BB  _vm_get_int8                       vm
     000649EF  _vm_get_int16                      vm
     00064A31  _vm_set_uint8                      vm
     00064A5D  _vm_set_int8                       vm
     00064A89  _vm_set_int16                      vm
     00064AC8  _vm_set_const_int8                 vm
     00064AD1  _vm_set_const_int16                vm
     00064ADD  _vm_init_rng                       vm
     00064B09  _vm_rand                           vm
     00064B8E  _vm_lock                           vm
     00064B9D  _vm_unlock                         vm
     00064BB0  _vm_raise                          vm
     00064BF2  _vm_set_indirect                   vm
     00064C6D  _vm_get_indirect                   vm
     00064CE8  _vm_poll_loaded                    vm
     00064D17  _vm_memset                         vm
     00064D5C  _vm_memcpy                         vm
     00064DDC  _script_runner_init                vm
     00064E98  _script_execute                    vm
     00064FDD  _script_terminate                  vm
     00065043  _script_detach_hthread             vm
     00065080  ___func_bg_coralstart_tilemap_at   bg_coralstart_tilemap_attr
     00065080  _bg_coralstart_tilemap_attr        bg_coralstart_tilemap_attr
     00065E2C  ___func_font_gbs_mono              font_gbs_mono
     00066BDC  _font_gbs_mono                     font_gbs_mono
ASxxxx Linker V03.00 + NoICE + sdld,  page 94.
Hexadecimal  [32-Bits]

Area                                    Addr        Size        Decimal Bytes (Attributes)
--------------------------------        ----        ----        ------- ----- ------------
_CODE_6                             00064000    00003FFE =       16382. bytes (REL,CON)

      Value  Global                              Global Defined In Module
      -----  --------------------------------   ------------------------
     00066BE4  _scene_0_init                      scene_0_init
     00066C05  ___func_scene_47_collisions        scene_47_collisions
     00066C05  _scene_47_collisions               scene_47_collisions
     00067E85  _trigger_5_interact                trigger_5_interact
ASxxxx Linker V03.00 + NoICE + sdld,  page 95.
Hexadecimal  [32-Bits]

Area                                    Addr        Size        Decimal Bytes (Attributes)
--------------------------------        ----        ----        ------- ----- ------------
_CODE_2                             00024000    00004000 =       16384. bytes (REL,CON)

      Value  Global                              Global Defined In Module
      -----  --------------------------------   ------------------------
     00024000  _actor_1_update                    actor_1_update
     0002401E  ___func_bg_blueridgestarcave_til   bg_blueridgestarcave_tilemap
     0002401E  _bg_blueridgestarcave_tilemap_at   bg_blueridgestarcave_tilemap
     0002591E  ___func_bg_coralmaze_tilemap       bg_coralmaze_tilemap
     0002591E  _bg_coralmaze_tilemap              bg_coralmaze_tilemap
     00027DAE  ___func_bg_knrcandjunepresents_t   bg_knrcandjunepresents_tiles
     00027DAE  _bg_knrcandjunepresents_tileset    bg_knrcandjunepresents_tiles

ASxxxx Linker V03.00 + NoICE + sdld,  page 96.
Hexadecimal  [32-Bits]

Area                                    Addr        Size        Decimal Bytes (Attributes)
--------------------------------        ----        ----        ------- ----- ------------
_CODE_13                            000D4000    00003FFF =       16383. bytes (REL,CON)

      Value  Global                              Global Defined In Module
      -----  --------------------------------   ------------------------
     000D4000  ___func_bg_blueridgecaveentrance   bg_blueridgecaveentrance_til
     000D4000  _bg_blueridgecaveentrance_tilese   bg_blueridgecaveentrance_til
     000D4992  ___func_bg_blueridgecaveentrance   bg_blueridgecaveentrance
     000D4992  _bg_blueridgecaveentrance          bg_blueridgecaveentrance
     000D49A0  ___func_bg_journallazy_tileset     bg_journallazy_tileset
     000D49A0  _bg_journallazy_tileset            bg_journallazy_tileset
     000D5342  ___func_bg_opendesert_tilemap_at   bg_opendesert_tilemap_attr
     000D5342  _bg_opendesert_tilemap_attr        bg_opendesert_tilemap_attr
     000D5BB2  ___func_bg_opendesert_tilemap      bg_opendesert_tilemap
     000D5BB2  _bg_opendesert_tilemap             bg_opendesert_tilemap
     000D6422  ___func_bg_opendesert_tileset      bg_opendesert_tileset
     000D6422  _bg_opendesert_tileset             bg_opendesert_tileset
     000D6DE4  ___func_bg_pondtest_tileset        bg_pondtest_tileset
     000D6DE4  _bg_pondtest_tileset               bg_pondtest_tileset
     000D7676  ___func_scene_13_collisions        scene_13_collisions
     000D7676  _scene_13_collisions               scene_13_collisions
     000D7EE6  _trigger_0_interact                trigger_0_interact

ASxxxx Linker V03.00 + NoICE + sdld,  page 97.
Hexadecimal  [32-Bits]

Area                                    Addr        Size        Decimal Bytes (Attributes)
--------------------------------        ----        ----        ------- ----- ------------
_CODE_15                            000F4000    00003FFF =       16383. bytes (REL,CON)

      Value  Global                              Global Defined In Module
      -----  --------------------------------   ------------------------
     000F4000  ___func_bg_blueridgemountaintop_   bg_blueridgemountaintop_tile
     000F4000  _bg_blueridgemountaintop_tileset   bg_blueridgemountaintop_tile
     000F4702  ___func_bg_blueridgemountaintop2   bg_blueridgemountaintop2_til
     000F4702  _bg_blueridgemountaintop2_tilese   bg_blueridgemountaintop2_til
     000F4CF4  ___func_bg_blueridgewalk_tilemap   bg_blueridgewalk_tilemap_att
     000F4CF4  _bg_blueridgewalk_tilemap_attr     bg_blueridgewalk_tilemap_att
     000F50E4  ___func_bg_cgmgsj_tileset          bg_cgmgsj_tileset
     000F50E4  _bg_cgmgsj_tileset                 bg_cgmgsj_tileset
     000F57D6  ___func_bg_desertoasis_tileset     bg_desertoasis_tileset
     000F57D6  _bg_desertoasis_tileset            bg_desertoasis_tileset
     000F5E58  ___func_bg_deserttower_tileset     bg_deserttower_tileset
     000F5E58  _bg_deserttower_tileset            bg_deserttower_tileset
     000F649A  ___func_bg_penguinrocxk_tilemap_   bg_penguinrocxk_tilemap_attr
     000F649A  _bg_penguinrocxk_tilemap_attr      bg_penguinrocxk_tilemap_attr
     000F6B7A  ___func_bg_penguinrocxk_tilemap    bg_penguinrocxk_tilemap
     000F6B7A  _bg_penguinrocxk_tilemap           bg_penguinrocxk_tilemap
     000F725A  ___func_bg_pyramidview_tileset     bg_pyramidview_tileset
     000F725A  _bg_pyramidview_tileset            bg_pyramidview_tileset
     000F791C  ___func_scene_30_sprites           scene_30_sprites
     000F791C  _scene_30_sprites                  scene_30_sprites
     000F791F  ___func_scene_38_collisions        scene_38_collisions
     000F791F  _scene_38_collisions               scene_38_collisions

ASxxxx Linker V03.00 + NoICE + sdld,  page 98.
Hexadecimal  [32-Bits]

Area                                    Addr        Size        Decimal Bytes (Attributes)
--------------------------------        ----        ----        ------- ----- ------------
_CODE_11                            000B4000    00003FFE =       16382. bytes (REL,CON)

      Value  Global                              Global Defined In Module
      -----  --------------------------------   ------------------------
     000B4000  ___func_bg_coralstart_tileset      bg_coralstart_tileset
     000B4000  _bg_coralstart_tileset             bg_coralstart_tileset
     000B4A12  ___func_bg_journaldrum_tileset     bg_journaldrum_tileset
     000B4A12  _bg_journaldrum_tileset            bg_journaldrum_tileset
     000B5504  ___func_bg_journalrocket_tileset   bg_journalrocket_tileset
     000B5504  _bg_journalrocket_tileset          bg_journalrocket_tileset
     000B5FD6  ___func_bg_penguinrocxk_tileset    bg_penguinrocxk_tileset
     000B5FD6  _bg_penguinrocxk_tileset           bg_penguinrocxk_tileset
     000B6AB8  ___func_bg_starclearingnew_tilem   bg_starclearingnew_tilemap_a
     000B6AB8  _bg_starclearingnew_tilemap_attr   bg_starclearingnew_tilemap_a
     000B7544  ___func_scene_30_triggers          scene_30_triggers
     000B7544  _scene_30_triggers                 scene_30_triggers
     000B755C  ___func_sprite_premenu_tileset     sprite_premenu_tileset
     000B755C  _sprite_premenu_tileset            sprite_premenu_tileset

ASxxxx Linker V03.00 + NoICE + sdld,  page 99.
Hexadecimal  [32-Bits]

Area                                    Addr        Size        Decimal Bytes (Attributes)
--------------------------------        ----        ----        ------- ----- ------------
_CODE_8                             00084000    00004000 =       16384. bytes (REL,CON)

      Value  Global                              Global Defined In Module
      -----  --------------------------------   ------------------------
     00084000  ___func_bg_coralvillage_tilemap_   bg_coralvillage_tilemap_attr
     00084000  _bg_coralvillage_tilemap_attr      bg_coralvillage_tilemap_attr
     00084500  ___func_bg_journalcactus_tileset   bg_journalcactus_tileset
     00084500  _bg_journalcactus_tileset          bg_journalcactus_tileset
     000850C2  ___func_bg_journalplant_tileset    bg_journalplant_tileset
     000850C2  _bg_journalplant_tileset           bg_journalplant_tileset
     00085C94  ___func_bg_journalsomeguys_tiles   bg_journalsomeguys_tileset
     00085C94  _bg_journalsomeguys_tileset        bg_journalsomeguys_tileset
     00086886  ___func_bg_journaltrap_tileset     bg_journaltrap_tileset
     00086886  _bg_journaltrap_tileset            bg_journaltrap_tileset
     00087448  ___func_bg_mountain_entrance_til   bg_mountain_entrance_tileset
     00087448  _bg_mountain_entrance_tileset      bg_mountain_entrance_tileset
     00087FFA  ___func_scene_34_sprites           scene_34_sprites
     00087FFA  _scene_34_sprites                  scene_34_sprites

ASxxxx Linker V03.00 + NoICE + sdld,  page 100.
Hexadecimal  [32-Bits]

Area                                    Addr        Size        Decimal Bytes (Attributes)
--------------------------------        ----        ----        ------- ----- ------------
_CODE_12                            000C4000    00003FFF =       16383. bytes (REL,CON)

      Value  Global                              Global Defined In Module
      -----  --------------------------------   ------------------------
     000C4000  ___func_bg_desertfork_tileset      bg_desertfork_tileset
     000C4000  _bg_desertfork_tileset             bg_desertfork_tileset
     000C49E2  ___func_bg_journalclueless_tiles   bg_journalclueless_tileset
     000C49E2  _bg_journalclueless_tileset        bg_journalclueless_tileset
     000C5464  ___func_bg_journalsnail_tileset    bg_journalsnail_tileset
     000C5464  _bg_journalsnail_tileset           bg_journalsnail_tileset
     000C5EE6  ___func_bg_journalwalkie_tileset   bg_journalwalkie_tileset
     000C5EE6  _bg_journalwalkie_tileset          bg_journalwalkie_tileset
     000C6958  ___func_bg_starclearingnew_tilem   bg_starclearingnew_tilemap
     000C6958  _bg_starclearingnew_tilemap        bg_starclearingnew_tilemap
     000C73E4  _scene_13_init                     scene_13_init
     000C73FA  ___func_scene_32_collisions        scene_32_collisions
     000C73FA  _scene_32_collisions               scene_32_collisions
     000C7E86  _trigger_6_interact                trigger_6_interact

ASxxxx Linker V03.00 + NoICE + sdld,  page 101.
Hexadecimal  [32-Bits]

Area                                    Addr        Size        Decimal Bytes (Attributes)
--------------------------------        ----        ----        ------- ----- ------------
_CODE_10                            000A4000    00003FFF =       16383. bytes (REL,CON)

      Value  Global                              Global Defined In Module
      -----  --------------------------------   ------------------------
     000A4000  ___func_bg_forestentrance_tilese   bg_forestentrance_tileset
     000A4000  _bg_forestentrance_tileset         bg_forestentrance_tileset
     000A4B52  ___func_bg_forestnautilus_tilese   bg_forestnautilus_tileset
     000A4B52  _bg_forestnautilus_tileset         bg_forestnautilus_tileset
     000A53C4  ___func_bg_forestsplit_tileset     bg_forestsplit_tileset
     000A53C4  _bg_forestsplit_tileset            bg_forestsplit_tileset
     000A5EB6  ___func_bg_journalglass_tileset    bg_journalglass_tileset
     000A5EB6  _bg_journalglass_tileset           bg_journalglass_tileset
     000A69B8  ___func_bg_journalskull_tileset    bg_journalskull_tileset
     000A69B8  _bg_journalskull_tileset           bg_journalskull_tileset
     000A74CA  ___func_bg_journascoop_tileset     bg_journascoop_tileset
     000A74CA  _bg_journascoop_tileset            bg_journascoop_tileset
     000A7FFC  ___func_scene_21_sprites           scene_21_sprites
     000A7FFC  _scene_21_sprites                  scene_21_sprites

ASxxxx Linker V03.00 + NoICE + sdld,  page 102.
Hexadecimal  [32-Bits]

Area                                    Addr        Size        Decimal Bytes (Attributes)
--------------------------------        ----        ----        ------- ----- ------------
_HEADER_LCD0                        00000000    00000003 =           3. bytes (ABS,CON)

      Value  Global                              Global Defined In Module
      -----  --------------------------------   ------------------------
ASxxxx Linker V03.00 + NoICE + sdld,  page 103.

Files Linked                              [ module(s) ]

C:\Users\magic\AppData\Local\Temp/_gbstools/gbdk/lib/small/asxxxx/gb/crt0.o
                                          [ Runtime ]
C:/Users/magic/AppData/Local/Temp/_gbsbuild/obj/___sdcc_bcall_ehl.rel
                                          [  ]
C:/Users/magic/AppData/Local/Temp/_gbsbuild/obj/absolute.rel
                                          [ absolute ]
C:/Users/magic/AppData/Local/Temp/_gbsbuild/obj/actor.rel
                                          [ actor ]
C:/Users/magic/AppData/Local/Temp/_gbsbuild/obj/bankdata.rel
                                          [ bankdata ]
C:/Users/magic/AppData/Local/Temp/_gbsbuild/obj/bootstrap.rel
                                          [  ]
C:/Users/magic/AppData/Local/Temp/_gbsbuild/obj/camera.rel
                                          [ camera ]
C:/Users/magic/AppData/Local/Temp/_gbsbuild/obj/core.rel
                                          [ core ]
C:/Users/magic/AppData/Local/Temp/_gbsbuild/obj/crash_handler.rel
                                          [  ]
C:/Users/magic/AppData/Local/Temp/_gbsbuild/obj/data_manager.rel
                                          [ data_manager ]
C:/Users/magic/AppData/Local/Temp/_gbsbuild/obj/events.rel
                                          [ events ]
C:/Users/magic/AppData/Local/Temp/_gbsbuild/obj/fade_manager.rel
                                          [ fade_manager ]
C:/Users/magic/AppData/Local/Temp/_gbsbuild/obj/flasher_s.rel
                                          [  ]
C:/Users/magic/AppData/Local/Temp/_gbsbuild/obj/flasher.rel
                                          [ flasher ]
C:/Users/magic/AppData/Local/Temp/_gbsbuild/obj/game_time.rel
                                          [ game_time ]
C:/Users/magic/AppData/Local/Temp/_gbsbuild/obj/gbprinter.rel
                                          [ gbprinter ]
C:/Users/magic/AppData/Local/Temp/_gbsbuild/obj/input.rel
                                          [ input ]
C:/Users/magic/AppData/Local/Temp/_gbsbuild/obj/interrupt_sio.rel
                                          [  ]
C:/Users/magic/AppData/Local/Temp/_gbsbuild/obj/interrupt_timer.rel
                                          [  ]
C:/Users/magic/AppData/Local/Temp/_gbsbuild/obj/interrupts.rel
                                          [ interrupts ]
C:/Users/magic/AppData/Local/Temp/_gbsbuild/obj/load_save.rel
                                          [ load_save ]
C:/Users/magic/AppData/Local/Temp/_gbsbuild/obj/math.rel
                                          [ math ]
C:/Users/magic/AppData/Local/Temp/_gbsbuild/obj/music_manager.rel
                                          [ music_manager ]
C:/Users/magic/AppData/Local/Temp/_gbsbuild/obj/palette.rel
                                          [ palette ]
C:/Users/magic/AppData/Local/Temp/_gbsbuild/obj/parallax.rel
                                          [ parallax ]
C:/Users/magic/AppData/Local/Temp/_gbsbuild/obj/projectiles.rel
                                          [ projectiles ]
C:/Users/magic/AppData/Local/Temp/_gbsbuild/obj/scroll_a.rel
                                          [  ]
C:/Users/magic/AppData/Local/Temp/_gbsbuild/obj/scroll.rel
                                          [ scroll ]
C:/Users/magic/AppData/Local/Temp/_gbsbuild/obj/set_tile_submap.rel
                                          [  ]
C:/Users/magic/AppData/Local/Temp/_gbsbuild/obj/sfx_player.rel
                                          [ sfx_player ]
C:/Users/magic/AppData/Local/Temp/_gbsbuild/obj/sgb_border.rel
                                          [ sgb_border ]
C:/Users/magic/AppData/Local/Temp/_gbsbuild/obj/sio.rel
                                          [ sio ]
C:/Users/magic/AppData/Local/Temp/_gbsbuild/obj/states_caller.rel
                                          [  ]
C:/Users/magic/AppData/Local/Temp/_gbsbuild/obj/system.rel
                                          [ system ]
C:/Users/magic/AppData/Local/Temp/_gbsbuild/obj/trigger.rel
                                          [ trigger ]
C:/Users/magic/AppData/Local/Temp/_gbsbuild/obj/ui_a.rel
                                          [  ]
C:/Users/magic/AppData/Local/Temp/_gbsbuild/obj/ui.rel
                                          [ ui ]
C:/Users/magic/AppData/Local/Temp/_gbsbuild/obj/vm_actor.rel
                                          [ vm_actor ]
C:/Users/magic/AppData/Local/Temp/_gbsbuild/obj/vm_camera.rel
                                          [ vm_camera ]
C:/Users/magic/AppData/Local/Temp/_gbsbuild/obj/vm_gameboy.rel
                                          [ vm_gameboy ]
C:/Users/magic/AppData/Local/Temp/_gbsbuild/obj/vm_gbprinter.rel
                                          [ vm_gbprinter ]
C:/Users/magic/AppData/Local/Temp/_gbsbuild/obj/vm_instructions.rel
                                          [ vm_instructions ]
C:/Users/magic/AppData/Local/Temp/_gbsbuild/obj/vm_load_save.rel
                                          [ vm_load_save ]
C:/Users/magic/AppData/Local/Temp/_gbsbuild/obj/vm_math.rel
                                          [ vm_math ]
C:/Users/magic/AppData/Local/Temp/_gbsbuild/obj/vm_music.rel
                                          [ vm_music ]
C:/Users/magic/AppData/Local/Temp/_gbsbuild/obj/vm_palette.rel
                                          [ vm_palette ]
C:/Users/magic/AppData/Local/Temp/_gbsbuild/obj/vm_projectiles.rel
                                          [ vm_projectiles ]
C:/Users/magic/AppData/Local/Temp/_gbsbuild/obj/vm_rtc.rel
                                          [ vm_rtc ]
C:/Users/magic/AppData/Local/Temp/_gbsbuild/obj/vm_scene.rel
                                          [ vm_scene ]
C:/Users/magic/AppData/Local/Temp/_gbsbuild/obj/vm_sgb.rel
                                          [ vm_sgb ]
C:/Users/magic/AppData/Local/Temp/_gbsbuild/obj/vm_sio.rel
                                          [ vm_sio ]
C:/Users/magic/AppData/Local/Temp/_gbsbuild/obj/vm_ui_a.rel
                                          [ vm_ui_a ]
C:/Users/magic/AppData/Local/Temp/_gbsbuild/obj/vm_ui.rel
                                          [ vm_ui ]
C:/Users/magic/AppData/Local/Temp/_gbsbuild/obj/vm.rel
                                          [ vm ]
C:/Users/magic/AppData/Local/Temp/_gbsbuild/obj/actor_1_interact.rel
                                          [ actor_1_interact ]
C:/Users/magic/AppData/Local/Temp/_gbsbuild/obj/actor_1_update.rel
                                          [ actor_1_update ]
C:/Users/magic/AppData/Local/Temp/_gbsbuild/obj/actor_10_interact.rel
                                          [ actor_10_interact ]
C:/Users/magic/AppData/Local/Temp/_gbsbuild/obj/actor_10_update.rel
                                          [ actor_10_update ]
C:/Users/magic/AppData/Local/Temp/_gbsbuild/obj/actor_11_interact.rel
                                          [ actor_11_interact ]
C:/Users/magic/AppData/Local/Temp/_gbsbuild/obj/actor_11_update.rel
                                          [ actor_11_update ]
C:/Users/magic/AppData/Local/Temp/_gbsbuild/obj/actor_12_interact.rel
                                          [ actor_12_interact ]
C:/Users/magic/AppData/Local/Temp/_gbsbuild/obj/actor_12_update.rel
                                          [ actor_12_update ]
C:/Users/magic/AppData/Local/Temp/_gbsbuild/obj/actor_13_interact.rel
                                          [ actor_13_interact ]
C:/Users/magic/AppData/Local/Temp/_gbsbuild/obj/actor_13_update.rel
                                          [ actor_13_update ]
C:/Users/magic/AppData/Local/Temp/_gbsbuild/obj/actor_14_interact.rel
                                          [ actor_14_interact ]
C:/Users/magic/AppData/Local/Temp/_gbsbuild/obj/actor_14_update.rel
                                          [ actor_14_update ]
C:/Users/magic/AppData/Local/Temp/_gbsbuild/obj/actor_15_interact.rel
                                          [ actor_15_interact ]
C:/Users/magic/AppData/Local/Temp/_gbsbuild/obj/actor_15_update.rel
                                          [ actor_15_update ]
C:/Users/magic/AppData/Local/Temp/_gbsbuild/obj/actor_16_interact.rel
                                          [ actor_16_interact ]
C:/Users/magic/AppData/Local/Temp/_gbsbuild/obj/actor_16_update.rel
                                          [ actor_16_update ]
C:/Users/magic/AppData/Local/Temp/_gbsbuild/obj/actor_17_interact.rel
                                          [ actor_17_interact ]
C:/Users/magic/AppData/Local/Temp/_gbsbuild/obj/actor_17_update.rel
                                          [ actor_17_update ]
C:/Users/magic/AppData/Local/Temp/_gbsbuild/obj/actor_18_interact.rel
                                          [ actor_18_interact ]
C:/Users/magic/AppData/Local/Temp/_gbsbuild/obj/actor_18_update.rel
                                          [ actor_18_update ]
C:/Users/magic/AppData/Local/Temp/_gbsbuild/obj/actor_19_interact.rel
                                          [ actor_19_interact ]
C:/Users/magic/AppData/Local/Temp/_gbsbuild/obj/actor_2_update.rel
                                          [ actor_2_update ]
C:/Users/magic/AppData/Local/Temp/_gbsbuild/obj/actor_20_interact.rel
                                          [ actor_20_interact ]
C:/Users/magic/AppData/Local/Temp/_gbsbuild/obj/actor_20_update.rel
                                          [ actor_20_update ]
C:/Users/magic/AppData/Local/Temp/_gbsbuild/obj/actor_21_interact.rel
                                          [ actor_21_interact ]
C:/Users/magic/AppData/Local/Temp/_gbsbuild/obj/actor_21_update.rel
                                          [ actor_21_update ]
C:/Users/magic/AppData/Local/Temp/_gbsbuild/obj/actor_22_interact.rel
                                          [ actor_22_interact ]
C:/Users/magic/AppData/Local/Temp/_gbsbuild/obj/actor_22_update.rel
                                          [ actor_22_update ]
C:/Users/magic/AppData/Local/Temp/_gbsbuild/obj/actor_23_interact.rel
                                          [ actor_23_interact ]
C:/Users/magic/AppData/Local/Temp/_gbsbuild/obj/actor_23_update.rel
                                          [ actor_23_update ]
C:/Users/magic/AppData/Local/Temp/_gbsbuild/obj/actor_24_interact.rel
                                          [ actor_24_interact ]
C:/Users/magic/AppData/Local/Temp/_gbsbuild/obj/actor_24_update.rel
                                          [ actor_24_update ]
C:/Users/magic/AppData/Local/Temp/_gbsbuild/obj/actor_25_interact.rel
                                          [ actor_25_interact ]
C:/Users/magic/AppData/Local/Temp/_gbsbuild/obj/actor_25_update.rel
                                          [ actor_25_update ]
C:/Users/magic/AppData/Local/Temp/_gbsbuild/obj/actor_26_interact.rel
                                          [ actor_26_interact ]
C:/Users/magic/AppData/Local/Temp/_gbsbuild/obj/actor_27_interact.rel
                                          [ actor_27_interact ]
C:/Users/magic/AppData/Local/Temp/_gbsbuild/obj/actor_28_interact.rel
                                          [ actor_28_interact ]
C:/Users/magic/AppData/Local/Temp/_gbsbuild/obj/actor_29_interact.rel
                                          [ actor_29_interact ]
C:/Users/magic/AppData/Local/Temp/_gbsbuild/obj/actor_3_update.rel
                                          [ actor_3_update ]
C:/Users/magic/AppData/Local/Temp/_gbsbuild/obj/actor_30_interact.rel
                                          [ actor_30_interact ]
C:/Users/magic/AppData/Local/Temp/_gbsbuild/obj/actor_31_interact.rel
                                          [ actor_31_interact ]
C:/Users/magic/AppData/Local/Temp/_gbsbuild/obj/actor_32_interact.rel
                                          [ actor_32_interact ]
C:/Users/magic/AppData/Local/Temp/_gbsbuild/obj/actor_32_update.rel
                                          [ actor_32_update ]
C:/Users/magic/AppData/Local/Temp/_gbsbuild/obj/actor_33_interact.rel
                                          [ actor_33_interact ]
C:/Users/magic/AppData/Local/Temp/_gbsbuild/obj/actor_33_update.rel
                                          [ actor_33_update ]
C:/Users/magic/AppData/Local/Temp/_gbsbuild/obj/actor_4_update.rel
                                          [ actor_4_update ]
C:/Users/magic/AppData/Local/Temp/_gbsbuild/obj/actor_5_update.rel
                                          [ actor_5_update ]
C:/Users/magic/AppData/Local/Temp/_gbsbuild/obj/bg_ambercave_tilemap_attr.rel
                                          [ bg_ambercave_tilemap_attr ]
C:/Users/magic/AppData/Local/Temp/_gbsbuild/obj/bg_ambercave_tilemap.rel
                                          [ bg_ambercave_tilemap ]
C:/Users/magic/AppData/Local/Temp/_gbsbuild/obj/bg_ambercave_tileset.rel
                                          [ bg_ambercave_tileset ]
C:/Users/magic/AppData/Local/Temp/_gbsbuild/obj/bg_ambercave.rel
                                          [ bg_ambercave ]
C:/Users/magic/AppData/Local/Temp/_gbsbuild/obj/bg_blueridgecaveentrance_tilemap_attr.rel
                                          [ bg_blueridgecaveentrance_tilemap ]
C:/Users/magic/AppData/Local/Temp/_gbsbuild/obj/bg_blueridgecaveentrance_tilemap.rel
                                          [ bg_blueridgecaveentrance_tilemap ]
C:/Users/magic/AppData/Local/Temp/_gbsbuild/obj/bg_blueridgecaveentrance_tileset.rel
                                          [ bg_blueridgecaveentrance_tileset ]
C:/Users/magic/AppData/Local/Temp/_gbsbuild/obj/bg_blueridgecaveentrance.rel
                                          [ bg_blueridgecaveentrance ]
C:/Users/magic/AppData/Local/Temp/_gbsbuild/obj/bg_blueridgemountaintop_tilemap_attr.rel
                                          [ bg_blueridgemountaintop_tilemap_ ]
C:/Users/magic/AppData/Local/Temp/_gbsbuild/obj/bg_blueridgemountaintop_tilemap.rel
                                          [ bg_blueridgemountaintop_tilemap ]
C:/Users/magic/AppData/Local/Temp/_gbsbuild/obj/bg_blueridgemountaintop_tileset.rel
                                          [ bg_blueridgemountaintop_tileset ]
C:/Users/magic/AppData/Local/Temp/_gbsbuild/obj/bg_blueridgemountaintop.rel
                                          [ bg_blueridgemountaintop ]
C:/Users/magic/AppData/Local/Temp/_gbsbuild/obj/bg_blueridgemountaintop2_tilemap.rel
                                          [ bg_blueridgemountaintop2_tilemap ]
C:/Users/magic/AppData/Local/Temp/_gbsbuild/obj/bg_blueridgemountaintop2_tileset.rel
                                          [ bg_blueridgemountaintop2_tileset ]
C:/Users/magic/AppData/Local/Temp/_gbsbuild/obj/bg_blueridgemountaintop2.rel
                                          [ bg_blueridgemountaintop2 ]
C:/Users/magic/AppData/Local/Temp/_gbsbuild/obj/bg_blueridgerockroom_tilemap_attr.rel
                                          [ bg_blueridgerockroom_tilemap_att ]
C:/Users/magic/AppData/Local/Temp/_gbsbuild/obj/bg_blueridgerockroom_tilemap.rel
                                          [ bg_blueridgerockroom_tilemap ]
C:/Users/magic/AppData/Local/Temp/_gbsbuild/obj/bg_blueridgerockroom_tileset.rel
                                          [ bg_blueridgerockroom_tileset ]
C:/Users/magic/AppData/Local/Temp/_gbsbuild/obj/bg_blueridgerockroom.rel
                                          [ bg_blueridgerockroom ]
C:/Users/magic/AppData/Local/Temp/_gbsbuild/obj/bg_blueridgestarcave_tilemap_attr.rel
                                          [ bg_blueridgestarcave_tilemap_att ]
C:/Users/magic/AppData/Local/Temp/_gbsbuild/obj/bg_blueridgestarcave_tilemap.rel
                                          [ bg_blueridgestarcave_tilemap ]
C:/Users/magic/AppData/Local/Temp/_gbsbuild/obj/bg_blueridgestarcave_tileset.rel
                                          [ bg_blueridgestarcave_tileset ]
C:/Users/magic/AppData/Local/Temp/_gbsbuild/obj/bg_blueridgestarcave.rel
                                          [ bg_blueridgestarcave ]
C:/Users/magic/AppData/Local/Temp/_gbsbuild/obj/bg_blueridgewalk_tilemap_attr.rel
                                          [ bg_blueridgewalk_tilemap_attr ]
C:/Users/magic/AppData/Local/Temp/_gbsbuild/obj/bg_blueridgewalk_tilemap.rel
                                          [ bg_blueridgewalk_tilemap ]
C:/Users/magic/AppData/Local/Temp/_gbsbuild/obj/bg_blueridgewalk_tileset.rel
                                          [ bg_blueridgewalk_tileset ]
C:/Users/magic/AppData/Local/Temp/_gbsbuild/obj/bg_blueridgewalk.rel
                                          [ bg_blueridgewalk ]
C:/Users/magic/AppData/Local/Temp/_gbsbuild/obj/bg_cgmgsj_tilemap.rel
                                          [ bg_cgmgsj_tilemap ]
C:/Users/magic/AppData/Local/Temp/_gbsbuild/obj/bg_cgmgsj_tileset.rel
                                          [ bg_cgmgsj_tileset ]
C:/Users/magic/AppData/Local/Temp/_gbsbuild/obj/bg_cgmgsj.rel
                                          [ bg_cgmgsj ]
C:/Users/magic/AppData/Local/Temp/_gbsbuild/obj/bg_coralmaze_tilemap_attr.rel
                                          [ bg_coralmaze_tilemap_attr ]
C:/Users/magic/AppData/Local/Temp/_gbsbuild/obj/bg_coralmaze_tilemap.rel
                                          [ bg_coralmaze_tilemap ]
C:/Users/magic/AppData/Local/Temp/_gbsbuild/obj/bg_coralmaze_tileset.rel
                                          [ bg_coralmaze_tileset ]
C:/Users/magic/AppData/Local/Temp/_gbsbuild/obj/bg_coralmaze.rel
                                          [ bg_coralmaze ]
C:/Users/magic/AppData/Local/Temp/_gbsbuild/obj/bg_coralslime_tilemap.rel
                                          [ bg_coralslime_tilemap ]
C:/Users/magic/AppData/Local/Temp/_gbsbuild/obj/bg_coralslime_tileset.rel
                                          [ bg_coralslime_tileset ]
C:/Users/magic/AppData/Local/Temp/_gbsbuild/obj/bg_coralslime.rel
                                          [ bg_coralslime ]
C:/Users/magic/AppData/Local/Temp/_gbsbuild/obj/bg_coralstart_tilemap_attr.rel
                                          [ bg_coralstart_tilemap_attr ]
C:/Users/magic/AppData/Local/Temp/_gbsbuild/obj/bg_coralstart_tilemap.rel
                                          [ bg_coralstart_tilemap ]
C:/Users/magic/AppData/Local/Temp/_gbsbuild/obj/bg_coralstart_tileset.rel
                                          [ bg_coralstart_tileset ]
C:/Users/magic/AppData/Local/Temp/_gbsbuild/obj/bg_coralstart.rel
                                          [ bg_coralstart ]
C:/Users/magic/AppData/Local/Temp/_gbsbuild/obj/bg_coraltree_tilemap_attr.rel
                                          [ bg_coraltree_tilemap_attr ]
C:/Users/magic/AppData/Local/Temp/_gbsbuild/obj/bg_coraltree_tilemap.rel
                                          [ bg_coraltree_tilemap ]
C:/Users/magic/AppData/Local/Temp/_gbsbuild/obj/bg_coraltree_tileset.rel
                                          [ bg_coraltree_tileset ]
C:/Users/magic/AppData/Local/Temp/_gbsbuild/obj/bg_coraltree.rel
                                          [ bg_coraltree ]
C:/Users/magic/AppData/Local/Temp/_gbsbuild/obj/bg_coraltunnel_tilemap.rel
                                          [ bg_coraltunnel_tilemap ]
C:/Users/magic/AppData/Local/Temp/_gbsbuild/obj/bg_coraltunnel_tileset.rel
                                          [ bg_coraltunnel_tileset ]
C:/Users/magic/AppData/Local/Temp/_gbsbuild/obj/bg_coraltunnel.rel
                                          [ bg_coraltunnel ]
C:/Users/magic/AppData/Local/Temp/_gbsbuild/obj/bg_coralvillage_tilemap_attr.rel
                                          [ bg_coralvillage_tilemap_attr ]
C:/Users/magic/AppData/Local/Temp/_gbsbuild/obj/bg_coralvillage_tilemap.rel
                                          [ bg_coralvillage_tilemap ]
C:/Users/magic/AppData/Local/Temp/_gbsbuild/obj/bg_coralvillage_tileset.rel
                                          [ bg_coralvillage_tileset ]
C:/Users/magic/AppData/Local/Temp/_gbsbuild/obj/bg_coralvillage.rel
                                          [ bg_coralvillage ]
C:/Users/magic/AppData/Local/Temp/_gbsbuild/obj/bg_coralwell_tilemap.rel
                                          [ bg_coralwell_tilemap ]
C:/Users/magic/AppData/Local/Temp/_gbsbuild/obj/bg_coralwell_tileset.rel
                                          [ bg_coralwell_tileset ]
C:/Users/magic/AppData/Local/Temp/_gbsbuild/obj/bg_coralwell.rel
                                          [ bg_coralwell ]
C:/Users/magic/AppData/Local/Temp/_gbsbuild/obj/bg_desert_entry_tilemap_attr.rel
                                          [ bg_desert_entry_tilemap_attr ]
C:/Users/magic/AppData/Local/Temp/_gbsbuild/obj/bg_desert_entry_tilemap.rel
                                          [ bg_desert_entry_tilemap ]
C:/Users/magic/AppData/Local/Temp/_gbsbuild/obj/bg_desert_entry_tileset.rel
                                          [ bg_desert_entry_tileset ]
C:/Users/magic/AppData/Local/Temp/_gbsbuild/obj/bg_desert_entry.rel
                                          [ bg_desert_entry ]
C:/Users/magic/AppData/Local/Temp/_gbsbuild/obj/bg_desertfork_tilemap_attr.rel
                                          [ bg_desertfork_tilemap_attr ]
C:/Users/magic/AppData/Local/Temp/_gbsbuild/obj/bg_desertfork_tilemap.rel
                                          [ bg_desertfork_tilemap ]
C:/Users/magic/AppData/Local/Temp/_gbsbuild/obj/bg_desertfork_tileset.rel
                                          [ bg_desertfork_tileset ]
C:/Users/magic/AppData/Local/Temp/_gbsbuild/obj/bg_desertfork.rel
                                          [ bg_desertfork ]
C:/Users/magic/AppData/Local/Temp/_gbsbuild/obj/bg_desertoasis_tilemap.rel
                                          [ bg_desertoasis_tilemap ]
C:/Users/magic/AppData/Local/Temp/_gbsbuild/obj/bg_desertoasis_tileset.rel
                                          [ bg_desertoasis_tileset ]
C:/Users/magic/AppData/Local/Temp/_gbsbuild/obj/bg_desertoasis.rel
                                          [ bg_desertoasis ]
C:/Users/magic/AppData/Local/Temp/_gbsbuild/obj/bg_deserttower_tilemap.rel
                                          [ bg_deserttower_tilemap ]
C:/Users/magic/AppData/Local/Temp/_gbsbuild/obj/bg_deserttower_tileset.rel
                                          [ bg_deserttower_tileset ]
C:/Users/magic/AppData/Local/Temp/_gbsbuild/obj/bg_deserttower.rel
                                          [ bg_deserttower ]
C:/Users/magic/AppData/Local/Temp/_gbsbuild/obj/bg_ending_tilemap.rel
                                          [ bg_ending_tilemap ]
C:/Users/magic/AppData/Local/Temp/_gbsbuild/obj/bg_ending_tileset.rel
                                          [ bg_ending_tileset ]
C:/Users/magic/AppData/Local/Temp/_gbsbuild/obj/bg_ending.rel
                                          [ bg_ending ]
C:/Users/magic/AppData/Local/Temp/_gbsbuild/obj/bg_forestentrance_tilemap_attr.rel
                                          [ bg_forestentrance_tilemap_attr ]
C:/Users/magic/AppData/Local/Temp/_gbsbuild/obj/bg_forestentrance_tilemap.rel
                                          [ bg_forestentrance_tilemap ]
C:/Users/magic/AppData/Local/Temp/_gbsbuild/obj/bg_forestentrance_tileset.rel
                                          [ bg_forestentrance_tileset ]
C:/Users/magic/AppData/Local/Temp/_gbsbuild/obj/bg_forestentrance.rel
                                          [ bg_forestentrance ]
C:/Users/magic/AppData/Local/Temp/_gbsbuild/obj/bg_forestmaintest_tilemap_attr.rel
                                          [ bg_forestmaintest_tilemap_attr ]
C:/Users/magic/AppData/Local/Temp/_gbsbuild/obj/bg_forestmaintest_tilemap.rel
                                          [ bg_forestmaintest_tilemap ]
C:/Users/magic/AppData/Local/Temp/_gbsbuild/obj/bg_forestmaintest_tileset.rel
                                          [ bg_forestmaintest_tileset ]
C:/Users/magic/AppData/Local/Temp/_gbsbuild/obj/bg_forestmaintest.rel
                                          [ bg_forestmaintest ]
C:/Users/magic/AppData/Local/Temp/_gbsbuild/obj/bg_forestnautilus_tilemap_attr.rel
                                          [ bg_forestnautilus_tilemap_attr ]
C:/Users/magic/AppData/Local/Temp/_gbsbuild/obj/bg_forestnautilus_tilemap.rel
                                          [ bg_forestnautilus_tilemap ]
C:/Users/magic/AppData/Local/Temp/_gbsbuild/obj/bg_forestnautilus_tileset.rel
                                          [ bg_forestnautilus_tileset ]
C:/Users/magic/AppData/Local/Temp/_gbsbuild/obj/bg_forestnautilus.rel
                                          [ bg_forestnautilus ]
C:/Users/magic/AppData/Local/Temp/_gbsbuild/obj/bg_forestpond_tilemap.rel
                                          [ bg_forestpond_tilemap ]
C:/Users/magic/AppData/Local/Temp/_gbsbuild/obj/bg_forestpond_tileset.rel
                                          [ bg_forestpond_tileset ]
C:/Users/magic/AppData/Local/Temp/_gbsbuild/obj/bg_forestpond.rel
                                          [ bg_forestpond ]
C:/Users/magic/AppData/Local/Temp/_gbsbuild/obj/bg_forestsplit_tilemap.rel
                                          [ bg_forestsplit_tilemap ]
C:/Users/magic/AppData/Local/Temp/_gbsbuild/obj/bg_forestsplit_tileset.rel
                                          [ bg_forestsplit_tileset ]
C:/Users/magic/AppData/Local/Temp/_gbsbuild/obj/bg_forestsplit.rel
                                          [ bg_forestsplit ]
C:/Users/magic/AppData/Local/Temp/_gbsbuild/obj/bg_gamelogo_tilemap.rel
                                          [ bg_gamelogo_tilemap ]
C:/Users/magic/AppData/Local/Temp/_gbsbuild/obj/bg_gamelogo_tileset.rel
                                          [ bg_gamelogo_tileset ]
C:/Users/magic/AppData/Local/Temp/_gbsbuild/obj/bg_gamelogo.rel
                                          [ bg_gamelogo ]
C:/Users/magic/AppData/Local/Temp/_gbsbuild/obj/bg_journalcactus_tilemap.rel
                                          [ bg_journalcactus_tilemap ]
C:/Users/magic/AppData/Local/Temp/_gbsbuild/obj/bg_journalcactus_tileset.rel
                                          [ bg_journalcactus_tileset ]
C:/Users/magic/AppData/Local/Temp/_gbsbuild/obj/bg_journalcactus.rel
                                          [ bg_journalcactus ]
C:/Users/magic/AppData/Local/Temp/_gbsbuild/obj/bg_journalclueless_tilemap.rel
                                          [ bg_journalclueless_tilemap ]
C:/Users/magic/AppData/Local/Temp/_gbsbuild/obj/bg_journalclueless_tileset.rel
                                          [ bg_journalclueless_tileset ]
C:/Users/magic/AppData/Local/Temp/_gbsbuild/obj/bg_journalclueless.rel
                                          [ bg_journalclueless ]
C:/Users/magic/AppData/Local/Temp/_gbsbuild/obj/bg_journaldrum_tilemap.rel
                                          [ bg_journaldrum_tilemap ]
C:/Users/magic/AppData/Local/Temp/_gbsbuild/obj/bg_journaldrum_tileset.rel
                                          [ bg_journaldrum_tileset ]
C:/Users/magic/AppData/Local/Temp/_gbsbuild/obj/bg_journaldrum.rel
                                          [ bg_journaldrum ]
C:/Users/magic/AppData/Local/Temp/_gbsbuild/obj/bg_journalglass_tilemap.rel
                                          [ bg_journalglass_tilemap ]
C:/Users/magic/AppData/Local/Temp/_gbsbuild/obj/bg_journalglass_tileset.rel
                                          [ bg_journalglass_tileset ]
C:/Users/magic/AppData/Local/Temp/_gbsbuild/obj/bg_journalglass.rel
                                          [ bg_journalglass ]
C:/Users/magic/AppData/Local/Temp/_gbsbuild/obj/bg_journallazy_tilemap.rel
                                          [ bg_journallazy_tilemap ]
C:/Users/magic/AppData/Local/Temp/_gbsbuild/obj/bg_journallazy_tileset.rel
                                          [ bg_journallazy_tileset ]
C:/Users/magic/AppData/Local/Temp/_gbsbuild/obj/bg_journallazy.rel
                                          [ bg_journallazy ]
C:/Users/magic/AppData/Local/Temp/_gbsbuild/obj/bg_journalnecklace_tilemap.rel
                                          [ bg_journalnecklace_tilemap ]
C:/Users/magic/AppData/Local/Temp/_gbsbuild/obj/bg_journalnecklace_tileset.rel
                                          [ bg_journalnecklace_tileset ]
C:/Users/magic/AppData/Local/Temp/_gbsbuild/obj/bg_journalnecklace.rel
                                          [ bg_journalnecklace ]
C:/Users/magic/AppData/Local/Temp/_gbsbuild/obj/bg_journalplant_tilemap.rel
                                          [ bg_journalplant_tilemap ]
C:/Users/magic/AppData/Local/Temp/_gbsbuild/obj/bg_journalplant_tileset.rel
                                          [ bg_journalplant_tileset ]
C:/Users/magic/AppData/Local/Temp/_gbsbuild/obj/bg_journalplant.rel
                                          [ bg_journalplant ]
C:/Users/magic/AppData/Local/Temp/_gbsbuild/obj/bg_journalpoker_tilemap.rel
                                          [ bg_journalpoker_tilemap ]
C:/Users/magic/AppData/Local/Temp/_gbsbuild/obj/bg_journalpoker_tileset.rel
                                          [ bg_journalpoker_tileset ]
C:/Users/magic/AppData/Local/Temp/_gbsbuild/obj/bg_journalpoker.rel
                                          [ bg_journalpoker ]
C:/Users/magic/AppData/Local/Temp/_gbsbuild/obj/bg_journalrocket_tilemap.rel
                                          [ bg_journalrocket_tilemap ]
C:/Users/magic/AppData/Local/Temp/_gbsbuild/obj/bg_journalrocket_tileset.rel
                                          [ bg_journalrocket_tileset ]
C:/Users/magic/AppData/Local/Temp/_gbsbuild/obj/bg_journalrocket.rel
                                          [ bg_journalrocket ]
C:/Users/magic/AppData/Local/Temp/_gbsbuild/obj/bg_journalskull_tilemap.rel
                                          [ bg_journalskull_tilemap ]
C:/Users/magic/AppData/Local/Temp/_gbsbuild/obj/bg_journalskull_tileset.rel
                                          [ bg_journalskull_tileset ]
C:/Users/magic/AppData/Local/Temp/_gbsbuild/obj/bg_journalskull.rel
                                          [ bg_journalskull ]
C:/Users/magic/AppData/Local/Temp/_gbsbuild/obj/bg_journalsnail_tilemap.rel
                                          [ bg_journalsnail_tilemap ]
C:/Users/magic/AppData/Local/Temp/_gbsbuild/obj/bg_journalsnail_tileset.rel
                                          [ bg_journalsnail_tileset ]
C:/Users/magic/AppData/Local/Temp/_gbsbuild/obj/bg_journalsnail.rel
                                          [ bg_journalsnail ]
C:/Users/magic/AppData/Local/Temp/_gbsbuild/obj/bg_journalsomeguys_tilemap.rel
                                          [ bg_journalsomeguys_tilemap ]
C:/Users/magic/AppData/Local/Temp/_gbsbuild/obj/bg_journalsomeguys_tileset.rel
                                          [ bg_journalsomeguys_tileset ]
C:/Users/magic/AppData/Local/Temp/_gbsbuild/obj/bg_journalsomeguys.rel
                                          [ bg_journalsomeguys ]
C:/Users/magic/AppData/Local/Temp/_gbsbuild/obj/bg_journalswerve_tilemap.rel
                                          [ bg_journalswerve_tilemap ]
C:/Users/magic/AppData/Local/Temp/_gbsbuild/obj/bg_journalswerve_tileset.rel
                                          [ bg_journalswerve_tileset ]
C:/Users/magic/AppData/Local/Temp/_gbsbuild/obj/bg_journalswerve.rel
                                          [ bg_journalswerve ]
C:/Users/magic/AppData/Local/Temp/_gbsbuild/obj/bg_journaltrap_tilemap.rel
                                          [ bg_journaltrap_tilemap ]
C:/Users/magic/AppData/Local/Temp/_gbsbuild/obj/bg_journaltrap_tileset.rel
                                          [ bg_journaltrap_tileset ]
C:/Users/magic/AppData/Local/Temp/_gbsbuild/obj/bg_journaltrap.rel
                                          [ bg_journaltrap ]
C:/Users/magic/AppData/Local/Temp/_gbsbuild/obj/bg_journalwalkie_tilemap.rel
                                          [ bg_journalwalkie_tilemap ]
C:/Users/magic/AppData/Local/Temp/_gbsbuild/obj/bg_journalwalkie_tileset.rel
                                          [ bg_journalwalkie_tileset ]
C:/Users/magic/AppData/Local/Temp/_gbsbuild/obj/bg_journalwalkie.rel
                                          [ bg_journalwalkie ]
C:/Users/magic/AppData/Local/Temp/_gbsbuild/obj/bg_journascoop_tilemap.rel
                                          [ bg_journascoop_tilemap ]
C:/Users/magic/AppData/Local/Temp/_gbsbuild/obj/bg_journascoop_tileset.rel
                                          [ bg_journascoop_tileset ]
C:/Users/magic/AppData/Local/Temp/_gbsbuild/obj/bg_journascoop.rel
                                          [ bg_journascoop ]
C:/Users/magic/AppData/Local/Temp/_gbsbuild/obj/bg_knrcandjunepresents_tilemap.rel
                                          [ bg_knrcandjunepresents_tilemap ]
C:/Users/magic/AppData/Local/Temp/_gbsbuild/obj/bg_knrcandjunepresents_tileset.rel
                                          [ bg_knrcandjunepresents_tileset ]
C:/Users/magic/AppData/Local/Temp/_gbsbuild/obj/bg_knrcandjunepresents.rel
                                          [ bg_knrcandjunepresents ]
C:/Users/magic/AppData/Local/Temp/_gbsbuild/obj/bg_mountain_entrance_tilemap.rel
                                          [ bg_mountain_entrance_tilemap ]
C:/Users/magic/AppData/Local/Temp/_gbsbuild/obj/bg_mountain_entrance_tileset.rel
                                          [ bg_mountain_entrance_tileset ]
C:/Users/magic/AppData/Local/Temp/_gbsbuild/obj/bg_mountain_entrance.rel
                                          [ bg_mountain_entrance ]
C:/Users/magic/AppData/Local/Temp/_gbsbuild/obj/bg_opendesert_tilemap_attr.rel
                                          [ bg_opendesert_tilemap_attr ]
C:/Users/magic/AppData/Local/Temp/_gbsbuild/obj/bg_opendesert_tilemap.rel
                                          [ bg_opendesert_tilemap ]
C:/Users/magic/AppData/Local/Temp/_gbsbuild/obj/bg_opendesert_tileset.rel
                                          [ bg_opendesert_tileset ]
C:/Users/magic/AppData/Local/Temp/_gbsbuild/obj/bg_opendesert.rel
                                          [ bg_opendesert ]
C:/Users/magic/AppData/Local/Temp/_gbsbuild/obj/bg_penguinrocxk_tilemap_attr.rel
                                          [ bg_penguinrocxk_tilemap_attr ]
C:/Users/magic/AppData/Local/Temp/_gbsbuild/obj/bg_penguinrocxk_tilemap.rel
                                          [ bg_penguinrocxk_tilemap ]
C:/Users/magic/AppData/Local/Temp/_gbsbuild/obj/bg_penguinrocxk_tileset.rel
                                          [ bg_penguinrocxk_tileset ]
C:/Users/magic/AppData/Local/Temp/_gbsbuild/obj/bg_penguinrocxk.rel
                                          [ bg_penguinrocxk ]
C:/Users/magic/AppData/Local/Temp/_gbsbuild/obj/bg_pondtest_tilemap.rel
                                          [ bg_pondtest_tilemap ]
C:/Users/magic/AppData/Local/Temp/_gbsbuild/obj/bg_pondtest_tileset.rel
                                          [ bg_pondtest_tileset ]
C:/Users/magic/AppData/Local/Temp/_gbsbuild/obj/bg_pondtest.rel
                                          [ bg_pondtest ]
C:/Users/magic/AppData/Local/Temp/_gbsbuild/obj/bg_pyramidtop_tilemap.rel
                                          [ bg_pyramidtop_tilemap ]
C:/Users/magic/AppData/Local/Temp/_gbsbuild/obj/bg_pyramidtop_tileset.rel
                                          [ bg_pyramidtop_tileset ]
C:/Users/magic/AppData/Local/Temp/_gbsbuild/obj/bg_pyramidtop.rel
                                          [ bg_pyramidtop ]
C:/Users/magic/AppData/Local/Temp/_gbsbuild/obj/bg_pyramidview_tilemap_attr.rel
                                          [ bg_pyramidview_tilemap_attr ]
C:/Users/magic/AppData/Local/Temp/_gbsbuild/obj/bg_pyramidview_tilemap.rel
                                          [ bg_pyramidview_tilemap ]
C:/Users/magic/AppData/Local/Temp/_gbsbuild/obj/bg_pyramidview_tileset.rel
                                          [ bg_pyramidview_tileset ]
C:/Users/magic/AppData/Local/Temp/_gbsbuild/obj/bg_pyramidview.rel
                                          [ bg_pyramidview ]
C:/Users/magic/AppData/Local/Temp/_gbsbuild/obj/bg_starclearingnew_tilemap_attr.rel
                                          [ bg_starclearingnew_tilemap_attr ]
C:/Users/magic/AppData/Local/Temp/_gbsbuild/obj/bg_starclearingnew_tilemap.rel
                                          [ bg_starclearingnew_tilemap ]
C:/Users/magic/AppData/Local/Temp/_gbsbuild/obj/bg_starclearingnew_tileset.rel
                                          [ bg_starclearingnew_tileset ]
C:/Users/magic/AppData/Local/Temp/_gbsbuild/obj/bg_starclearingnew.rel
                                          [ bg_starclearingnew ]
C:/Users/magic/AppData/Local/Temp/_gbsbuild/obj/bg_testpara_tilemap_attr.rel
                                          [ bg_testpara_tilemap_attr ]
C:/Users/magic/AppData/Local/Temp/_gbsbuild/obj/bg_testpara_tilemap.rel
                                          [ bg_testpara_tilemap ]
C:/Users/magic/AppData/Local/Temp/_gbsbuild/obj/bg_testpara_tileset.rel
                                          [ bg_testpara_tileset ]
C:/Users/magic/AppData/Local/Temp/_gbsbuild/obj/bg_testpara.rel
                                          [ bg_testpara ]
C:/Users/magic/AppData/Local/Temp/_gbsbuild/obj/cursor_image.rel
                                          [ cursor_image ]
C:/Users/magic/AppData/Local/Temp/_gbsbuild/obj/emote_love.rel
                                          [ emote_love ]
C:/Users/magic/AppData/Local/Temp/_gbsbuild/obj/emote_pause.rel
                                          [ emote_pause ]
C:/Users/magic/AppData/Local/Temp/_gbsbuild/obj/emote_question.rel
                                          [ emote_question ]
C:/Users/magic/AppData/Local/Temp/_gbsbuild/obj/emote_shock.rel
                                          [ emote_shock ]
C:/Users/magic/AppData/Local/Temp/_gbsbuild/obj/font_gbs_mono.rel
                                          [ font_gbs_mono ]
C:/Users/magic/AppData/Local/Temp/_gbsbuild/obj/frame_image.rel
                                          [ frame_image ]
C:/Users/magic/AppData/Local/Temp/_gbsbuild/obj/game_signature.rel
                                          [ game_signature ]
C:/Users/magic/AppData/Local/Temp/_gbsbuild/obj/palette_0.rel
                                          [ palette_0 ]
C:/Users/magic/AppData/Local/Temp/_gbsbuild/obj/palette_1.rel
                                          [ palette_1 ]
C:/Users/magic/AppData/Local/Temp/_gbsbuild/obj/scene_0_collisions.rel
                                          [ scene_0_collisions ]
C:/Users/magic/AppData/Local/Temp/_gbsbuild/obj/scene_0_init.rel
                                          [ scene_0_init ]
C:/Users/magic/AppData/Local/Temp/_gbsbuild/obj/scene_0_triggers.rel
                                          [ scene_0_triggers ]
C:/Users/magic/AppData/Local/Temp/_gbsbuild/obj/scene_0.rel
                                          [ scene_0 ]
C:/Users/magic/AppData/Local/Temp/_gbsbuild/obj/scene_10_collisions.rel
                                          [ scene_10_collisions ]
C:/Users/magic/AppData/Local/Temp/_gbsbuild/obj/scene_10_init.rel
                                          [ scene_10_init ]
C:/Users/magic/AppData/Local/Temp/_gbsbuild/obj/scene_10_triggers.rel
                                          [ scene_10_triggers ]
C:/Users/magic/AppData/Local/Temp/_gbsbuild/obj/scene_10.rel
                                          [ scene_10 ]
C:/Users/magic/AppData/Local/Temp/_gbsbuild/obj/scene_11_collisions.rel
                                          [ scene_11_collisions ]
C:/Users/magic/AppData/Local/Temp/_gbsbuild/obj/scene_11_init.rel
                                          [ scene_11_init ]
C:/Users/magic/AppData/Local/Temp/_gbsbuild/obj/scene_11_triggers.rel
                                          [ scene_11_triggers ]
C:/Users/magic/AppData/Local/Temp/_gbsbuild/obj/scene_11.rel
                                          [ scene_11 ]
C:/Users/magic/AppData/Local/Temp/_gbsbuild/obj/scene_12_collisions.rel
                                          [ scene_12_collisions ]
C:/Users/magic/AppData/Local/Temp/_gbsbuild/obj/scene_12_init.rel
                                          [ scene_12_init ]
C:/Users/magic/AppData/Local/Temp/_gbsbuild/obj/scene_12_triggers.rel
                                          [ scene_12_triggers ]
C:/Users/magic/AppData/Local/Temp/_gbsbuild/obj/scene_12.rel
                                          [ scene_12 ]
C:/Users/magic/AppData/Local/Temp/_gbsbuild/obj/scene_13_actors.rel
                                          [ scene_13_actors ]
C:/Users/magic/AppData/Local/Temp/_gbsbuild/obj/scene_13_collisions.rel
                                          [ scene_13_collisions ]
C:/Users/magic/AppData/Local/Temp/_gbsbuild/obj/scene_13_init.rel
                                          [ scene_13_init ]
C:/Users/magic/AppData/Local/Temp/_gbsbuild/obj/scene_13_triggers.rel
                                          [ scene_13_triggers ]
C:/Users/magic/AppData/Local/Temp/_gbsbuild/obj/scene_13.rel
                                          [ scene_13 ]
C:/Users/magic/AppData/Local/Temp/_gbsbuild/obj/scene_14_collisions.rel
                                          [ scene_14_collisions ]
C:/Users/magic/AppData/Local/Temp/_gbsbuild/obj/scene_14_init.rel
                                          [ scene_14_init ]
C:/Users/magic/AppData/Local/Temp/_gbsbuild/obj/scene_14_triggers.rel
                                          [ scene_14_triggers ]
C:/Users/magic/AppData/Local/Temp/_gbsbuild/obj/scene_14.rel
                                          [ scene_14 ]
C:/Users/magic/AppData/Local/Temp/_gbsbuild/obj/scene_15_collisions.rel
                                          [ scene_15_collisions ]
C:/Users/magic/AppData/Local/Temp/_gbsbuild/obj/scene_15_init.rel
                                          [ scene_15_init ]
C:/Users/magic/AppData/Local/Temp/_gbsbuild/obj/scene_15_triggers.rel
                                          [ scene_15_triggers ]
C:/Users/magic/AppData/Local/Temp/_gbsbuild/obj/scene_15.rel
                                          [ scene_15 ]
C:/Users/magic/AppData/Local/Temp/_gbsbuild/obj/scene_16_collisions.rel
                                          [ scene_16_collisions ]
C:/Users/magic/AppData/Local/Temp/_gbsbuild/obj/scene_16_init.rel
                                          [ scene_16_init ]
C:/Users/magic/AppData/Local/Temp/_gbsbuild/obj/scene_16_triggers.rel
                                          [ scene_16_triggers ]
C:/Users/magic/AppData/Local/Temp/_gbsbuild/obj/scene_16.rel
                                          [ scene_16 ]
C:/Users/magic/AppData/Local/Temp/_gbsbuild/obj/scene_17_collisions.rel
                                          [ scene_17_collisions ]
C:/Users/magic/AppData/Local/Temp/_gbsbuild/obj/scene_17_init.rel
                                          [ scene_17_init ]
C:/Users/magic/AppData/Local/Temp/_gbsbuild/obj/scene_17_triggers.rel
                                          [ scene_17_triggers ]
C:/Users/magic/AppData/Local/Temp/_gbsbuild/obj/scene_17.rel
                                          [ scene_17 ]
C:/Users/magic/AppData/Local/Temp/_gbsbuild/obj/scene_18_collisions.rel
                                          [ scene_18_collisions ]
C:/Users/magic/AppData/Local/Temp/_gbsbuild/obj/scene_18_init.rel
                                          [ scene_18_init ]
C:/Users/magic/AppData/Local/Temp/_gbsbuild/obj/scene_18_triggers.rel
                                          [ scene_18_triggers ]
C:/Users/magic/AppData/Local/Temp/_gbsbuild/obj/scene_18.rel
                                          [ scene_18 ]
C:/Users/magic/AppData/Local/Temp/_gbsbuild/obj/scene_19_collisions.rel
                                          [ scene_19_collisions ]
C:/Users/magic/AppData/Local/Temp/_gbsbuild/obj/scene_19_init.rel
                                          [ scene_19_init ]
C:/Users/magic/AppData/Local/Temp/_gbsbuild/obj/scene_19_triggers.rel
                                          [ scene_19_triggers ]
C:/Users/magic/AppData/Local/Temp/_gbsbuild/obj/scene_19.rel
                                          [ scene_19 ]
C:/Users/magic/AppData/Local/Temp/_gbsbuild/obj/scene_2_collisions.rel
                                          [ scene_2_collisions ]
C:/Users/magic/AppData/Local/Temp/_gbsbuild/obj/scene_2_init.rel
                                          [ scene_2_init ]
C:/Users/magic/AppData/Local/Temp/_gbsbuild/obj/scene_2_triggers.rel
                                          [ scene_2_triggers ]
C:/Users/magic/AppData/Local/Temp/_gbsbuild/obj/scene_2.rel
                                          [ scene_2 ]
C:/Users/magic/AppData/Local/Temp/_gbsbuild/obj/scene_20_collisions.rel
                                          [ scene_20_collisions ]
C:/Users/magic/AppData/Local/Temp/_gbsbuild/obj/scene_20_init.rel
                                          [ scene_20_init ]
C:/Users/magic/AppData/Local/Temp/_gbsbuild/obj/scene_20_triggers.rel
                                          [ scene_20_triggers ]
C:/Users/magic/AppData/Local/Temp/_gbsbuild/obj/scene_20.rel
                                          [ scene_20 ]
C:/Users/magic/AppData/Local/Temp/_gbsbuild/obj/scene_21_actors.rel
                                          [ scene_21_actors ]
C:/Users/magic/AppData/Local/Temp/_gbsbuild/obj/scene_21_collisions.rel
                                          [ scene_21_collisions ]
C:/Users/magic/AppData/Local/Temp/_gbsbuild/obj/scene_21_init.rel
                                          [ scene_21_init ]
C:/Users/magic/AppData/Local/Temp/_gbsbuild/obj/scene_21_sprites.rel
                                          [ scene_21_sprites ]
C:/Users/magic/AppData/Local/Temp/_gbsbuild/obj/scene_21_triggers.rel
                                          [ scene_21_triggers ]
C:/Users/magic/AppData/Local/Temp/_gbsbuild/obj/scene_21.rel
                                          [ scene_21 ]
C:/Users/magic/AppData/Local/Temp/_gbsbuild/obj/scene_22_collisions.rel
                                          [ scene_22_collisions ]
C:/Users/magic/AppData/Local/Temp/_gbsbuild/obj/scene_22_init.rel
                                          [ scene_22_init ]
C:/Users/magic/AppData/Local/Temp/_gbsbuild/obj/scene_22_triggers.rel
                                          [ scene_22_triggers ]
C:/Users/magic/AppData/Local/Temp/_gbsbuild/obj/scene_22.rel
                                          [ scene_22 ]
C:/Users/magic/AppData/Local/Temp/_gbsbuild/obj/scene_23_collisions.rel
                                          [ scene_23_collisions ]
C:/Users/magic/AppData/Local/Temp/_gbsbuild/obj/scene_23_init.rel
                                          [ scene_23_init ]
C:/Users/magic/AppData/Local/Temp/_gbsbuild/obj/scene_23_triggers.rel
                                          [ scene_23_triggers ]
C:/Users/magic/AppData/Local/Temp/_gbsbuild/obj/scene_23.rel
                                          [ scene_23 ]
C:/Users/magic/AppData/Local/Temp/_gbsbuild/obj/scene_24_collisions.rel
                                          [ scene_24_collisions ]
C:/Users/magic/AppData/Local/Temp/_gbsbuild/obj/scene_24_init.rel
                                          [ scene_24_init ]
C:/Users/magic/AppData/Local/Temp/_gbsbuild/obj/scene_24_triggers.rel
                                          [ scene_24_triggers ]
C:/Users/magic/AppData/Local/Temp/_gbsbuild/obj/scene_24.rel
                                          [ scene_24 ]
C:/Users/magic/AppData/Local/Temp/_gbsbuild/obj/scene_25_collisions.rel
                                          [ scene_25_collisions ]
C:/Users/magic/AppData/Local/Temp/_gbsbuild/obj/scene_25_init.rel
                                          [ scene_25_init ]
C:/Users/magic/AppData/Local/Temp/_gbsbuild/obj/scene_25_triggers.rel
                                          [ scene_25_triggers ]
C:/Users/magic/AppData/Local/Temp/_gbsbuild/obj/scene_25.rel
                                          [ scene_25 ]
C:/Users/magic/AppData/Local/Temp/_gbsbuild/obj/scene_28_collisions.rel
                                          [ scene_28_collisions ]
C:/Users/magic/AppData/Local/Temp/_gbsbuild/obj/scene_28_init.rel
                                          [ scene_28_init ]
C:/Users/magic/AppData/Local/Temp/_gbsbuild/obj/scene_28.rel
                                          [ scene_28 ]
C:/Users/magic/AppData/Local/Temp/_gbsbuild/obj/scene_29_collisions.rel
                                          [ scene_29_collisions ]
C:/Users/magic/AppData/Local/Temp/_gbsbuild/obj/scene_29_init.rel
                                          [ scene_29_init ]
C:/Users/magic/AppData/Local/Temp/_gbsbuild/obj/scene_29.rel
                                          [ scene_29 ]
C:/Users/magic/AppData/Local/Temp/_gbsbuild/obj/scene_3_collisions.rel
                                          [ scene_3_collisions ]
C:/Users/magic/AppData/Local/Temp/_gbsbuild/obj/scene_3_init.rel
                                          [ scene_3_init ]
C:/Users/magic/AppData/Local/Temp/_gbsbuild/obj/scene_3.rel
                                          [ scene_3 ]
C:/Users/magic/AppData/Local/Temp/_gbsbuild/obj/scene_30_actors.rel
                                          [ scene_30_actors ]
C:/Users/magic/AppData/Local/Temp/_gbsbuild/obj/scene_30_collisions.rel
                                          [ scene_30_collisions ]
C:/Users/magic/AppData/Local/Temp/_gbsbuild/obj/scene_30_init.rel
                                          [ scene_30_init ]
C:/Users/magic/AppData/Local/Temp/_gbsbuild/obj/scene_30_sprites.rel
                                          [ scene_30_sprites ]
C:/Users/magic/AppData/Local/Temp/_gbsbuild/obj/scene_30_triggers.rel
                                          [ scene_30_triggers ]
C:/Users/magic/AppData/Local/Temp/_gbsbuild/obj/scene_30.rel
                                          [ scene_30 ]
C:/Users/magic/AppData/Local/Temp/_gbsbuild/obj/scene_31_collisions.rel
                                          [ scene_31_collisions ]
C:/Users/magic/AppData/Local/Temp/_gbsbuild/obj/scene_31_init.rel
                                          [ scene_31_init ]
C:/Users/magic/AppData/Local/Temp/_gbsbuild/obj/scene_31_triggers.rel
                                          [ scene_31_triggers ]
C:/Users/magic/AppData/Local/Temp/_gbsbuild/obj/scene_31.rel
                                          [ scene_31 ]
C:/Users/magic/AppData/Local/Temp/_gbsbuild/obj/scene_32_actors.rel
                                          [ scene_32_actors ]
C:/Users/magic/AppData/Local/Temp/_gbsbuild/obj/scene_32_collisions.rel
                                          [ scene_32_collisions ]
C:/Users/magic/AppData/Local/Temp/_gbsbuild/obj/scene_32_init.rel
                                          [ scene_32_init ]
C:/Users/magic/AppData/Local/Temp/_gbsbuild/obj/scene_32_sprites.rel
                                          [ scene_32_sprites ]
C:/Users/magic/AppData/Local/Temp/_gbsbuild/obj/scene_32_triggers.rel
                                          [ scene_32_triggers ]
C:/Users/magic/AppData/Local/Temp/_gbsbuild/obj/scene_32.rel
                                          [ scene_32 ]
C:/Users/magic/AppData/Local/Temp/_gbsbuild/obj/scene_33_collisions.rel
                                          [ scene_33_collisions ]
C:/Users/magic/AppData/Local/Temp/_gbsbuild/obj/scene_33_init.rel
                                          [ scene_33_init ]
C:/Users/magic/AppData/Local/Temp/_gbsbuild/obj/scene_33_triggers.rel
                                          [ scene_33_triggers ]
C:/Users/magic/AppData/Local/Temp/_gbsbuild/obj/scene_33.rel
                                          [ scene_33 ]
C:/Users/magic/AppData/Local/Temp/_gbsbuild/obj/scene_34_actors.rel
                                          [ scene_34_actors ]
C:/Users/magic/AppData/Local/Temp/_gbsbuild/obj/scene_34_collisions.rel
                                          [ scene_34_collisions ]
C:/Users/magic/AppData/Local/Temp/_gbsbuild/obj/scene_34_init.rel
                                          [ scene_34_init ]
C:/Users/magic/AppData/Local/Temp/_gbsbuild/obj/scene_34_sprites.rel
                                          [ scene_34_sprites ]
C:/Users/magic/AppData/Local/Temp/_gbsbuild/obj/scene_34_triggers.rel
                                          [ scene_34_triggers ]
C:/Users/magic/AppData/Local/Temp/_gbsbuild/obj/scene_34.rel
                                          [ scene_34 ]
C:/Users/magic/AppData/Local/Temp/_gbsbuild/obj/scene_35_actors.rel
                                          [ scene_35_actors ]
C:/Users/magic/AppData/Local/Temp/_gbsbuild/obj/scene_35_collisions.rel
                                          [ scene_35_collisions ]
C:/Users/magic/AppData/Local/Temp/_gbsbuild/obj/scene_35_init.rel
                                          [ scene_35_init ]
C:/Users/magic/AppData/Local/Temp/_gbsbuild/obj/scene_35_sprites.rel
                                          [ scene_35_sprites ]
C:/Users/magic/AppData/Local/Temp/_gbsbuild/obj/scene_35_triggers.rel
                                          [ scene_35_triggers ]
C:/Users/magic/AppData/Local/Temp/_gbsbuild/obj/scene_35.rel
                                          [ scene_35 ]
C:/Users/magic/AppData/Local/Temp/_gbsbuild/obj/scene_36_actors.rel
                                          [ scene_36_actors ]
C:/Users/magic/AppData/Local/Temp/_gbsbuild/obj/scene_36_collisions.rel
                                          [ scene_36_collisions ]
C:/Users/magic/AppData/Local/Temp/_gbsbuild/obj/scene_36_init.rel
                                          [ scene_36_init ]
C:/Users/magic/AppData/Local/Temp/_gbsbuild/obj/scene_36_sprites.rel
                                          [ scene_36_sprites ]
C:/Users/magic/AppData/Local/Temp/_gbsbuild/obj/scene_36_triggers.rel
                                          [ scene_36_triggers ]
C:/Users/magic/AppData/Local/Temp/_gbsbuild/obj/scene_36.rel
                                          [ scene_36 ]
C:/Users/magic/AppData/Local/Temp/_gbsbuild/obj/scene_37_actors.rel
                                          [ scene_37_actors ]
C:/Users/magic/AppData/Local/Temp/_gbsbuild/obj/scene_37_collisions.rel
                                          [ scene_37_collisions ]
C:/Users/magic/AppData/Local/Temp/_gbsbuild/obj/scene_37_init.rel
                                          [ scene_37_init ]
C:/Users/magic/AppData/Local/Temp/_gbsbuild/obj/scene_37_triggers.rel
                                          [ scene_37_triggers ]
C:/Users/magic/AppData/Local/Temp/_gbsbuild/obj/scene_37.rel
                                          [ scene_37 ]
C:/Users/magic/AppData/Local/Temp/_gbsbuild/obj/scene_38_actors.rel
                                          [ scene_38_actors ]
C:/Users/magic/AppData/Local/Temp/_gbsbuild/obj/scene_38_collisions.rel
                                          [ scene_38_collisions ]
C:/Users/magic/AppData/Local/Temp/_gbsbuild/obj/scene_38_init.rel
                                          [ scene_38_init ]
C:/Users/magic/AppData/Local/Temp/_gbsbuild/obj/scene_38_sprites.rel
                                          [ scene_38_sprites ]
C:/Users/magic/AppData/Local/Temp/_gbsbuild/obj/scene_38_triggers.rel
                                          [ scene_38_triggers ]
C:/Users/magic/AppData/Local/Temp/_gbsbuild/obj/scene_38.rel
                                          [ scene_38 ]
C:/Users/magic/AppData/Local/Temp/_gbsbuild/obj/scene_39_collisions.rel
                                          [ scene_39_collisions ]
C:/Users/magic/AppData/Local/Temp/_gbsbuild/obj/scene_39_init.rel
                                          [ scene_39_init ]
C:/Users/magic/AppData/Local/Temp/_gbsbuild/obj/scene_39_triggers.rel
                                          [ scene_39_triggers ]
C:/Users/magic/AppData/Local/Temp/_gbsbuild/obj/scene_39.rel
                                          [ scene_39 ]
C:/Users/magic/AppData/Local/Temp/_gbsbuild/obj/scene_4_collisions.rel
                                          [ scene_4_collisions ]
C:/Users/magic/AppData/Local/Temp/_gbsbuild/obj/scene_4_init.rel
                                          [ scene_4_init ]
C:/Users/magic/AppData/Local/Temp/_gbsbuild/obj/scene_4_triggers.rel
                                          [ scene_4_triggers ]
C:/Users/magic/AppData/Local/Temp/_gbsbuild/obj/scene_4.rel
                                          [ scene_4 ]
C:/Users/magic/AppData/Local/Temp/_gbsbuild/obj/scene_40_actors.rel
                                          [ scene_40_actors ]
C:/Users/magic/AppData/Local/Temp/_gbsbuild/obj/scene_40_collisions.rel
                                          [ scene_40_collisions ]
C:/Users/magic/AppData/Local/Temp/_gbsbuild/obj/scene_40_init.rel
                                          [ scene_40_init ]
C:/Users/magic/AppData/Local/Temp/_gbsbuild/obj/scene_40_sprites.rel
                                          [ scene_40_sprites ]
C:/Users/magic/AppData/Local/Temp/_gbsbuild/obj/scene_40_triggers.rel
                                          [ scene_40_triggers ]
C:/Users/magic/AppData/Local/Temp/_gbsbuild/obj/scene_40.rel
                                          [ scene_40 ]
C:/Users/magic/AppData/Local/Temp/_gbsbuild/obj/scene_41_collisions.rel
                                          [ scene_41_collisions ]
C:/Users/magic/AppData/Local/Temp/_gbsbuild/obj/scene_41_init.rel
                                          [ scene_41_init ]
C:/Users/magic/AppData/Local/Temp/_gbsbuild/obj/scene_41_triggers.rel
                                          [ scene_41_triggers ]
C:/Users/magic/AppData/Local/Temp/_gbsbuild/obj/scene_41.rel
                                          [ scene_41 ]
C:/Users/magic/AppData/Local/Temp/_gbsbuild/obj/scene_42_actors.rel
                                          [ scene_42_actors ]
C:/Users/magic/AppData/Local/Temp/_gbsbuild/obj/scene_42_collisions.rel
                                          [ scene_42_collisions ]
C:/Users/magic/AppData/Local/Temp/_gbsbuild/obj/scene_42_init.rel
                                          [ scene_42_init ]
C:/Users/magic/AppData/Local/Temp/_gbsbuild/obj/scene_42_sprites.rel
                                          [ scene_42_sprites ]
C:/Users/magic/AppData/Local/Temp/_gbsbuild/obj/scene_42_triggers.rel
                                          [ scene_42_triggers ]
C:/Users/magic/AppData/Local/Temp/_gbsbuild/obj/scene_42.rel
                                          [ scene_42 ]
C:/Users/magic/AppData/Local/Temp/_gbsbuild/obj/scene_43_collisions.rel
                                          [ scene_43_collisions ]
C:/Users/magic/AppData/Local/Temp/_gbsbuild/obj/scene_43_init.rel
                                          [ scene_43_init ]
C:/Users/magic/AppData/Local/Temp/_gbsbuild/obj/scene_43_triggers.rel
                                          [ scene_43_triggers ]
C:/Users/magic/AppData/Local/Temp/_gbsbuild/obj/scene_43.rel
                                          [ scene_43 ]
C:/Users/magic/AppData/Local/Temp/_gbsbuild/obj/scene_44_actors.rel
                                          [ scene_44_actors ]
C:/Users/magic/AppData/Local/Temp/_gbsbuild/obj/scene_44_collisions.rel
                                          [ scene_44_collisions ]
C:/Users/magic/AppData/Local/Temp/_gbsbuild/obj/scene_44_init.rel
                                          [ scene_44_init ]
C:/Users/magic/AppData/Local/Temp/_gbsbuild/obj/scene_44_triggers.rel
                                          [ scene_44_triggers ]
C:/Users/magic/AppData/Local/Temp/_gbsbuild/obj/scene_44.rel
                                          [ scene_44 ]
C:/Users/magic/AppData/Local/Temp/_gbsbuild/obj/scene_45_collisions.rel
                                          [ scene_45_collisions ]
C:/Users/magic/AppData/Local/Temp/_gbsbuild/obj/scene_45_init.rel
                                          [ scene_45_init ]
C:/Users/magic/AppData/Local/Temp/_gbsbuild/obj/scene_45_triggers.rel
                                          [ scene_45_triggers ]
C:/Users/magic/AppData/Local/Temp/_gbsbuild/obj/scene_45.rel
                                          [ scene_45 ]
C:/Users/magic/AppData/Local/Temp/_gbsbuild/obj/scene_46_collisions.rel
                                          [ scene_46_collisions ]
C:/Users/magic/AppData/Local/Temp/_gbsbuild/obj/scene_46_init.rel
                                          [ scene_46_init ]
C:/Users/magic/AppData/Local/Temp/_gbsbuild/obj/scene_46_triggers.rel
                                          [ scene_46_triggers ]
C:/Users/magic/AppData/Local/Temp/_gbsbuild/obj/scene_46.rel
                                          [ scene_46 ]
C:/Users/magic/AppData/Local/Temp/_gbsbuild/obj/scene_47_actors.rel
                                          [ scene_47_actors ]
C:/Users/magic/AppData/Local/Temp/_gbsbuild/obj/scene_47_collisions.rel
                                          [ scene_47_collisions ]
C:/Users/magic/AppData/Local/Temp/_gbsbuild/obj/scene_47_init.rel
                                          [ scene_47_init ]
C:/Users/magic/AppData/Local/Temp/_gbsbuild/obj/scene_47_sprites.rel
                                          [ scene_47_sprites ]
C:/Users/magic/AppData/Local/Temp/_gbsbuild/obj/scene_47_triggers.rel
                                          [ scene_47_triggers ]
C:/Users/magic/AppData/Local/Temp/_gbsbuild/obj/scene_47.rel
                                          [ scene_47 ]
C:/Users/magic/AppData/Local/Temp/_gbsbuild/obj/scene_48_actors.rel
                                          [ scene_48_actors ]
C:/Users/magic/AppData/Local/Temp/_gbsbuild/obj/scene_48_collisions.rel
                                          [ scene_48_collisions ]
C:/Users/magic/AppData/Local/Temp/_gbsbuild/obj/scene_48_init.rel
                                          [ scene_48_init ]
C:/Users/magic/AppData/Local/Temp/_gbsbuild/obj/scene_48_triggers.rel
                                          [ scene_48_triggers ]
C:/Users/magic/AppData/Local/Temp/_gbsbuild/obj/scene_48.rel
                                          [ scene_48 ]
C:/Users/magic/AppData/Local/Temp/_gbsbuild/obj/scene_49_actors.rel
                                          [ scene_49_actors ]
C:/Users/magic/AppData/Local/Temp/_gbsbuild/obj/scene_49_collisions.rel
                                          [ scene_49_collisions ]
C:/Users/magic/AppData/Local/Temp/_gbsbuild/obj/scene_49_init.rel
                                          [ scene_49_init ]
C:/Users/magic/AppData/Local/Temp/_gbsbuild/obj/scene_49_sprites.rel
                                          [ scene_49_sprites ]
C:/Users/magic/AppData/Local/Temp/_gbsbuild/obj/scene_49_triggers.rel
                                          [ scene_49_triggers ]
C:/Users/magic/AppData/Local/Temp/_gbsbuild/obj/scene_49.rel
                                          [ scene_49 ]
C:/Users/magic/AppData/Local/Temp/_gbsbuild/obj/scene_5_collisions.rel
                                          [ scene_5_collisions ]
C:/Users/magic/AppData/Local/Temp/_gbsbuild/obj/scene_5_init.rel
                                          [ scene_5_init ]
C:/Users/magic/AppData/Local/Temp/_gbsbuild/obj/scene_5_triggers.rel
                                          [ scene_5_triggers ]
C:/Users/magic/AppData/Local/Temp/_gbsbuild/obj/scene_5.rel
                                          [ scene_5 ]
C:/Users/magic/AppData/Local/Temp/_gbsbuild/obj/scene_50_actors.rel
                                          [ scene_50_actors ]
C:/Users/magic/AppData/Local/Temp/_gbsbuild/obj/scene_50_collisions.rel
                                          [ scene_50_collisions ]
C:/Users/magic/AppData/Local/Temp/_gbsbuild/obj/scene_50_init.rel
                                          [ scene_50_init ]
C:/Users/magic/AppData/Local/Temp/_gbsbuild/obj/scene_50_sprites.rel
                                          [ scene_50_sprites ]
C:/Users/magic/AppData/Local/Temp/_gbsbuild/obj/scene_50_triggers.rel
                                          [ scene_50_triggers ]
C:/Users/magic/AppData/Local/Temp/_gbsbuild/obj/scene_50.rel
                                          [ scene_50 ]
C:/Users/magic/AppData/Local/Temp/_gbsbuild/obj/scene_51_collisions.rel
                                          [ scene_51_collisions ]
C:/Users/magic/AppData/Local/Temp/_gbsbuild/obj/scene_51_init.rel
                                          [ scene_51_init ]
C:/Users/magic/AppData/Local/Temp/_gbsbuild/obj/scene_51_triggers.rel
                                          [ scene_51_triggers ]
C:/Users/magic/AppData/Local/Temp/_gbsbuild/obj/scene_51.rel
                                          [ scene_51 ]
C:/Users/magic/AppData/Local/Temp/_gbsbuild/obj/scene_52_collisions.rel
                                          [ scene_52_collisions ]
C:/Users/magic/AppData/Local/Temp/_gbsbuild/obj/scene_52_init.rel
                                          [ scene_52_init ]
C:/Users/magic/AppData/Local/Temp/_gbsbuild/obj/scene_52_triggers.rel
                                          [ scene_52_triggers ]
C:/Users/magic/AppData/Local/Temp/_gbsbuild/obj/scene_52.rel
                                          [ scene_52 ]
C:/Users/magic/AppData/Local/Temp/_gbsbuild/obj/scene_53_collisions.rel
                                          [ scene_53_collisions ]
C:/Users/magic/AppData/Local/Temp/_gbsbuild/obj/scene_53_init.rel
                                          [ scene_53_init ]
C:/Users/magic/AppData/Local/Temp/_gbsbuild/obj/scene_53_triggers.rel
                                          [ scene_53_triggers ]
C:/Users/magic/AppData/Local/Temp/_gbsbuild/obj/scene_53.rel
                                          [ scene_53 ]
C:/Users/magic/AppData/Local/Temp/_gbsbuild/obj/scene_54_actors.rel
                                          [ scene_54_actors ]
C:/Users/magic/AppData/Local/Temp/_gbsbuild/obj/scene_54_collisions.rel
                                          [ scene_54_collisions ]
C:/Users/magic/AppData/Local/Temp/_gbsbuild/obj/scene_54_init.rel
                                          [ scene_54_init ]
C:/Users/magic/AppData/Local/Temp/_gbsbuild/obj/scene_54_sprites.rel
                                          [ scene_54_sprites ]
C:/Users/magic/AppData/Local/Temp/_gbsbuild/obj/scene_54_triggers.rel
                                          [ scene_54_triggers ]
C:/Users/magic/AppData/Local/Temp/_gbsbuild/obj/scene_54.rel
                                          [ scene_54 ]
C:/Users/magic/AppData/Local/Temp/_gbsbuild/obj/scene_6_collisions.rel
                                          [ scene_6_collisions ]
C:/Users/magic/AppData/Local/Temp/_gbsbuild/obj/scene_6_init.rel
                                          [ scene_6_init ]
C:/Users/magic/AppData/Local/Temp/_gbsbuild/obj/scene_6.rel
                                          [ scene_6 ]
C:/Users/magic/AppData/Local/Temp/_gbsbuild/obj/scene_7_actors.rel
                                          [ scene_7_actors ]
C:/Users/magic/AppData/Local/Temp/_gbsbuild/obj/scene_7_collisions.rel
                                          [ scene_7_collisions ]
C:/Users/magic/AppData/Local/Temp/_gbsbuild/obj/scene_7_init.rel
                                          [ scene_7_init ]
C:/Users/magic/AppData/Local/Temp/_gbsbuild/obj/scene_7_sprites.rel
                                          [ scene_7_sprites ]
C:/Users/magic/AppData/Local/Temp/_gbsbuild/obj/scene_7_triggers.rel
                                          [ scene_7_triggers ]
C:/Users/magic/AppData/Local/Temp/_gbsbuild/obj/scene_7.rel
                                          [ scene_7 ]
C:/Users/magic/AppData/Local/Temp/_gbsbuild/obj/scene_8_actors.rel
                                          [ scene_8_actors ]
C:/Users/magic/AppData/Local/Temp/_gbsbuild/obj/scene_8_collisions.rel
                                          [ scene_8_collisions ]
C:/Users/magic/AppData/Local/Temp/_gbsbuild/obj/scene_8_init.rel
                                          [ scene_8_init ]
C:/Users/magic/AppData/Local/Temp/_gbsbuild/obj/scene_8_triggers.rel
                                          [ scene_8_triggers ]
C:/Users/magic/AppData/Local/Temp/_gbsbuild/obj/scene_8.rel
                                          [ scene_8 ]
C:/Users/magic/AppData/Local/Temp/_gbsbuild/obj/scene_9_collisions.rel
                                          [ scene_9_collisions ]
C:/Users/magic/AppData/Local/Temp/_gbsbuild/obj/scene_9_init.rel
                                          [ scene_9_init ]
C:/Users/magic/AppData/Local/Temp/_gbsbuild/obj/scene_9_triggers.rel
                                          [ scene_9_triggers ]
C:/Users/magic/AppData/Local/Temp/_gbsbuild/obj/scene_9.rel
                                          [ scene_9 ]
C:/Users/magic/AppData/Local/Temp/_gbsbuild/obj/script_engine_init.rel
                                          [  ]
C:/Users/magic/AppData/Local/Temp/_gbsbuild/obj/script_input_0.rel
                                          [ script_input_0 ]
C:/Users/magic/AppData/Local/Temp/_gbsbuild/obj/script_input_1.rel
                                          [ script_input_1 ]
C:/Users/magic/AppData/Local/Temp/_gbsbuild/obj/script_input_2.rel
                                          [ script_input_2 ]
C:/Users/magic/AppData/Local/Temp/_gbsbuild/obj/script_input_3.rel
                                          [ script_input_3 ]
C:/Users/magic/AppData/Local/Temp/_gbsbuild/obj/sprite_1_tileset.rel
                                          [ sprite_1_tileset ]
C:/Users/magic/AppData/Local/Temp/_gbsbuild/obj/sprite_1.rel
                                          [ sprite_1 ]
C:/Users/magic/AppData/Local/Temp/_gbsbuild/obj/sprite_2_tileset.rel
                                          [ sprite_2_tileset ]
C:/Users/magic/AppData/Local/Temp/_gbsbuild/obj/sprite_2.rel
                                          [ sprite_2 ]
C:/Users/magic/AppData/Local/Temp/_gbsbuild/obj/sprite_3_tileset.rel
                                          [ sprite_3_tileset ]
C:/Users/magic/AppData/Local/Temp/_gbsbuild/obj/sprite_3.rel
                                          [ sprite_3 ]
C:/Users/magic/AppData/Local/Temp/_gbsbuild/obj/sprite_4_tileset.rel
                                          [ sprite_4_tileset ]
C:/Users/magic/AppData/Local/Temp/_gbsbuild/obj/sprite_4.rel
                                          [ sprite_4 ]
C:/Users/magic/AppData/Local/Temp/_gbsbuild/obj/sprite_5_tileset.rel
                                          [ sprite_5_tileset ]
C:/Users/magic/AppData/Local/Temp/_gbsbuild/obj/sprite_5.rel
                                          [ sprite_5 ]
C:/Users/magic/AppData/Local/Temp/_gbsbuild/obj/sprite_6_tileset.rel
                                          [ sprite_6_tileset ]
C:/Users/magic/AppData/Local/Temp/_gbsbuild/obj/sprite_6.rel
                                          [ sprite_6 ]
C:/Users/magic/AppData/Local/Temp/_gbsbuild/obj/sprite_actor_animated_tileset.rel
                                          [ sprite_actor_animated_tileset ]
C:/Users/magic/AppData/Local/Temp/_gbsbuild/obj/sprite_actor_animated.rel
                                          [ sprite_actor_animated ]
C:/Users/magic/AppData/Local/Temp/_gbsbuild/obj/sprite_cursor_sheet_tileset.rel
                                          [ sprite_cursor_sheet_tileset ]
C:/Users/magic/AppData/Local/Temp/_gbsbuild/obj/sprite_cursor_sheet.rel
                                          [ sprite_cursor_sheet ]
C:/Users/magic/AppData/Local/Temp/_gbsbuild/obj/sprite_cute_small_guy_sheet_tileset.rel
                                          [ sprite_cute_small_guy_sheet_tile ]
C:/Users/magic/AppData/Local/Temp/_gbsbuild/obj/sprite_cute_small_guy_sheet.rel
                                          [ sprite_cute_small_guy_sheet ]
C:/Users/magic/AppData/Local/Temp/_gbsbuild/obj/sprite_digging_animation_sh_tileset.rel
                                          [ sprite_digging_animation_sh_tile ]
C:/Users/magic/AppData/Local/Temp/_gbsbuild/obj/sprite_digging_animation_sh.rel
                                          [ sprite_digging_animation_sh ]
C:/Users/magic/AppData/Local/Temp/_gbsbuild/obj/sprite_digspot_tileset.rel
                                          [ sprite_digspot_tileset ]
C:/Users/magic/AppData/Local/Temp/_gbsbuild/obj/sprite_digspot.rel
                                          [ sprite_digspot ]
C:/Users/magic/AppData/Local/Temp/_gbsbuild/obj/sprite_digspotopen_tileset.rel
                                          [ sprite_digspotopen_tileset ]
C:/Users/magic/AppData/Local/Temp/_gbsbuild/obj/sprite_digspotopen.rel
                                          [ sprite_digspotopen ]
C:/Users/magic/AppData/Local/Temp/_gbsbuild/obj/sprite_fishing_tileset.rel
                                          [ sprite_fishing_tileset ]
C:/Users/magic/AppData/Local/Temp/_gbsbuild/obj/sprite_fishing.rel
                                          [ sprite_fishing ]
C:/Users/magic/AppData/Local/Temp/_gbsbuild/obj/sprite_floortreasure_tileset.rel
                                          [ sprite_floortreasure_tileset ]
C:/Users/magic/AppData/Local/Temp/_gbsbuild/obj/sprite_floortreasure.rel
                                          [ sprite_floortreasure ]
C:/Users/magic/AppData/Local/Temp/_gbsbuild/obj/sprite_premenu_tilemap.rel
                                          [ sprite_premenu_tilemap ]
C:/Users/magic/AppData/Local/Temp/_gbsbuild/obj/sprite_premenu_tileset.rel
                                          [ sprite_premenu_tileset ]
C:/Users/magic/AppData/Local/Temp/_gbsbuild/obj/sprite_premenu.rel
                                          [ sprite_premenu ]
C:/Users/magic/AppData/Local/Temp/_gbsbuild/obj/sprite_rock_tileset.rel
                                          [ sprite_rock_tileset ]
C:/Users/magic/AppData/Local/Temp/_gbsbuild/obj/sprite_rock.rel
                                          [ sprite_rock ]
C:/Users/magic/AppData/Local/Temp/_gbsbuild/obj/sprite_stupid_tileset.rel
                                          [ sprite_stupid_tileset ]
C:/Users/magic/AppData/Local/Temp/_gbsbuild/obj/sprite_stupid.rel
                                          [ sprite_stupid ]
C:/Users/magic/AppData/Local/Temp/_gbsbuild/obj/spritesheet_none.rel
                                          [ spritesheet_none ]
C:/Users/magic/AppData/Local/Temp/_gbsbuild/obj/trigger_0_interact.rel
                                          [ trigger_0_interact ]
C:/Users/magic/AppData/Local/Temp/_gbsbuild/obj/trigger_1_interact.rel
                                          [ trigger_1_interact ]
C:/Users/magic/AppData/Local/Temp/_gbsbuild/obj/trigger_10_interact.rel
                                          [ trigger_10_interact ]
C:/Users/magic/AppData/Local/Temp/_gbsbuild/obj/trigger_11_interact.rel
                                          [ trigger_11_interact ]
C:/Users/magic/AppData/Local/Temp/_gbsbuild/obj/trigger_12_interact.rel
                                          [ trigger_12_interact ]
C:/Users/magic/AppData/Local/Temp/_gbsbuild/obj/trigger_13_interact.rel
                                          [ trigger_13_interact ]
C:/Users/magic/AppData/Local/Temp/_gbsbuild/obj/trigger_14_interact.rel
                                          [ trigger_14_interact ]
C:/Users/magic/AppData/Local/Temp/_gbsbuild/obj/trigger_15_interact.rel
                                          [ trigger_15_interact ]
C:/Users/magic/AppData/Local/Temp/_gbsbuild/obj/trigger_16_interact.rel
                                          [ trigger_16_interact ]
C:/Users/magic/AppData/Local/Temp/_gbsbuild/obj/trigger_17_interact.rel
                                          [ trigger_17_interact ]
C:/Users/magic/AppData/Local/Temp/_gbsbuild/obj/trigger_18_interact.rel
                                          [ trigger_18_interact ]
C:/Users/magic/AppData/Local/Temp/_gbsbuild/obj/trigger_19_interact.rel
                                          [ trigger_19_interact ]
C:/Users/magic/AppData/Local/Temp/_gbsbuild/obj/trigger_20_interact.rel
                                          [ trigger_20_interact ]
C:/Users/magic/AppData/Local/Temp/_gbsbuild/obj/trigger_21_interact.rel
                                          [ trigger_21_interact ]
C:/Users/magic/AppData/Local/Temp/_gbsbuild/obj/trigger_22_interact.rel
                                          [ trigger_22_interact ]
C:/Users/magic/AppData/Local/Temp/_gbsbuild/obj/trigger_23_interact.rel
                                          [ trigger_23_interact ]
C:/Users/magic/AppData/Local/Temp/_gbsbuild/obj/trigger_24_interact.rel
                                          [ trigger_24_interact ]
C:/Users/magic/AppData/Local/Temp/_gbsbuild/obj/trigger_25_interact.rel
                                          [ trigger_25_interact ]
C:/Users/magic/AppData/Local/Temp/_gbsbuild/obj/trigger_26_interact.rel
                                          [ trigger_26_interact ]
C:/Users/magic/AppData/Local/Temp/_gbsbuild/obj/trigger_27_interact.rel
                                          [ trigger_27_interact ]
C:/Users/magic/AppData/Local/Temp/_gbsbuild/obj/trigger_28_interact.rel
                                          [ trigger_28_interact ]
C:/Users/magic/AppData/Local/Temp/_gbsbuild/obj/trigger_29_interact.rel
                                          [ trigger_29_interact ]
C:/Users/magic/AppData/Local/Temp/_gbsbuild/obj/trigger_30_interact.rel
                                          [ trigger_30_interact ]
C:/Users/magic/AppData/Local/Temp/_gbsbuild/obj/trigger_31_interact.rel
                                          [ trigger_31_interact ]
C:/Users/magic/AppData/Local/Temp/_gbsbuild/obj/trigger_32_interact.rel
                                          [ trigger_32_interact ]
C:/Users/magic/AppData/Local/Temp/_gbsbuild/obj/trigger_33_interact.rel
                                          [ trigger_33_interact ]
C:/Users/magic/AppData/Local/Temp/_gbsbuild/obj/trigger_34_interact.rel
                                          [ trigger_34_interact ]
C:/Users/magic/AppData/Local/Temp/_gbsbuild/obj/trigger_35_interact.rel
                                          [ trigger_35_interact ]
C:/Users/magic/AppData/Local/Temp/_gbsbuild/obj/trigger_36_interact.rel
                                          [ trigger_36_interact ]
C:/Users/magic/AppData/Local/Temp/_gbsbuild/obj/trigger_37_interact.rel
                                          [ trigger_37_interact ]
C:/Users/magic/AppData/Local/Temp/_gbsbuild/obj/trigger_38_interact.rel
                                          [ trigger_38_interact ]
C:/Users/magic/AppData/Local/Temp/_gbsbuild/obj/trigger_39_interact.rel
                                          [ trigger_39_interact ]
C:/Users/magic/AppData/Local/Temp/_gbsbuild/obj/trigger_4_interact.rel
                                          [ trigger_4_interact ]
C:/Users/magic/AppData/Local/Temp/_gbsbuild/obj/trigger_40_interact.rel
                                          [ trigger_40_interact ]
C:/Users/magic/AppData/Local/Temp/_gbsbuild/obj/trigger_41_interact.rel
                                          [ trigger_41_interact ]
C:/Users/magic/AppData/Local/Temp/_gbsbuild/obj/trigger_42_interact.rel
                                          [ trigger_42_interact ]
C:/Users/magic/AppData/Local/Temp/_gbsbuild/obj/trigger_43_interact.rel
                                          [ trigger_43_interact ]
C:/Users/magic/AppData/Local/Temp/_gbsbuild/obj/trigger_44_interact.rel
                                          [ trigger_44_interact ]
C:/Users/magic/AppData/Local/Temp/_gbsbuild/obj/trigger_45_interact.rel
                                          [ trigger_45_interact ]
C:/Users/magic/AppData/Local/Temp/_gbsbuild/obj/trigger_46_interact.rel
                                          [ trigger_46_interact ]
C:/Users/magic/AppData/Local/Temp/_gbsbuild/obj/trigger_47_interact.rel
                                          [ trigger_47_interact ]
C:/Users/magic/AppData/Local/Temp/_gbsbuild/obj/trigger_48_interact.rel
                                          [ trigger_48_interact ]
C:/Users/magic/AppData/Local/Temp/_gbsbuild/obj/trigger_49_interact.rel
                                          [ trigger_49_interact ]
C:/Users/magic/AppData/Local/Temp/_gbsbuild/obj/trigger_5_interact.rel
                                          [ trigger_5_interact ]
C:/Users/magic/AppData/Local/Temp/_gbsbuild/obj/trigger_50_interact.rel
                                          [ trigger_50_interact ]
C:/Users/magic/AppData/Local/Temp/_gbsbuild/obj/trigger_51_interact.rel
                                          [ trigger_51_interact ]
C:/Users/magic/AppData/Local/Temp/_gbsbuild/obj/trigger_52_interact.rel
                                          [ trigger_52_interact ]
C:/Users/magic/AppData/Local/Temp/_gbsbuild/obj/trigger_53_interact.rel
                                          [ trigger_53_interact ]
C:/Users/magic/AppData/Local/Temp/_gbsbuild/obj/trigger_54_interact.rel
                                          [ trigger_54_interact ]
C:/Users/magic/AppData/Local/Temp/_gbsbuild/obj/trigger_55_interact.rel
                                          [ trigger_55_interact ]
C:/Users/magic/AppData/Local/Temp/_gbsbuild/obj/trigger_56_interact.rel
                                          [ trigger_56_interact ]
C:/Users/magic/AppData/Local/Temp/_gbsbuild/obj/trigger_57_interact.rel
                                          [ trigger_57_interact ]
C:/Users/magic/AppData/Local/Temp/_gbsbuild/obj/trigger_58_interact.rel
                                          [ trigger_58_interact ]
C:/Users/magic/AppData/Local/Temp/_gbsbuild/obj/trigger_59_interact.rel
                                          [ trigger_59_interact ]
C:/Users/magic/AppData/Local/Temp/_gbsbuild/obj/trigger_6_interact.rel
                                          [ trigger_6_interact ]
C:/Users/magic/AppData/Local/Temp/_gbsbuild/obj/trigger_60_interact.rel
                                          [ trigger_60_interact ]
C:/Users/magic/AppData/Local/Temp/_gbsbuild/obj/trigger_61_interact.rel
                                          [ trigger_61_interact ]
C:/Users/magic/AppData/Local/Temp/_gbsbuild/obj/trigger_62_interact.rel
                                          [ trigger_62_interact ]
C:/Users/magic/AppData/Local/Temp/_gbsbuild/obj/trigger_63_interact.rel
                                          [ trigger_63_interact ]
C:/Users/magic/AppData/Local/Temp/_gbsbuild/obj/trigger_64_interact.rel
                                          [ trigger_64_interact ]
C:/Users/magic/AppData/Local/Temp/_gbsbuild/obj/trigger_65_interact.rel
                                          [ trigger_65_interact ]
C:/Users/magic/AppData/Local/Temp/_gbsbuild/obj/trigger_66_interact.rel
                                          [ trigger_66_interact ]
C:/Users/magic/AppData/Local/Temp/_gbsbuild/obj/trigger_67_interact.rel
                                          [ trigger_67_interact ]
C:/Users/magic/AppData/Local/Temp/_gbsbuild/obj/trigger_68_interact.rel
                                          [ trigger_68_interact ]
C:/Users/magic/AppData/Local/Temp/_gbsbuild/obj/trigger_69_interact.rel
                                          [ trigger_69_interact ]
C:/Users/magic/AppData/Local/Temp/_gbsbuild/obj/trigger_7_interact.rel
                                          [ trigger_7_interact ]
C:/Users/magic/AppData/Local/Temp/_gbsbuild/obj/trigger_70_interact.rel
                                          [ trigger_70_interact ]
C:/Users/magic/AppData/Local/Temp/_gbsbuild/obj/trigger_71_interact.rel
                                          [ trigger_71_interact ]
C:/Users/magic/AppData/Local/Temp/_gbsbuild/obj/trigger_72_interact.rel
                                          [ trigger_72_interact ]
C:/Users/magic/AppData/Local/Temp/_gbsbuild/obj/trigger_73_interact.rel
                                          [ trigger_73_interact ]
C:/Users/magic/AppData/Local/Temp/_gbsbuild/obj/trigger_74_interact.rel
                                          [ trigger_74_interact ]
C:/Users/magic/AppData/Local/Temp/_gbsbuild/obj/trigger_75_interact.rel
                                          [ trigger_75_interact ]
C:/Users/magic/AppData/Local/Temp/_gbsbuild/obj/trigger_76_interact.rel
                                          [ trigger_76_interact ]
C:/Users/magic/AppData/Local/Temp/_gbsbuild/obj/trigger_77_interact.rel
                                          [ trigger_77_interact ]
C:/Users/magic/AppData/Local/Temp/_gbsbuild/obj/trigger_78_interact.rel
                                          [ trigger_78_interact ]
C:/Users/magic/AppData/Local/Temp/_gbsbuild/obj/trigger_79_interact.rel
                                          [ trigger_79_interact ]
C:/Users/magic/AppData/Local/Temp/_gbsbuild/obj/trigger_8_interact.rel
                                          [ trigger_8_interact ]
C:/Users/magic/AppData/Local/Temp/_gbsbuild/obj/trigger_80_interact.rel
                                          [ trigger_80_interact ]
C:/Users/magic/AppData/Local/Temp/_gbsbuild/obj/trigger_81_interact.rel
                                          [ trigger_81_interact ]
C:/Users/magic/AppData/Local/Temp/_gbsbuild/obj/trigger_82_interact.rel
                                          [ trigger_82_interact ]
C:/Users/magic/AppData/Local/Temp/_gbsbuild/obj/trigger_83_interact.rel
                                          [ trigger_83_interact ]
C:/Users/magic/AppData/Local/Temp/_gbsbuild/obj/trigger_84_interact.rel
                                          [ trigger_84_interact ]
C:/Users/magic/AppData/Local/Temp/_gbsbuild/obj/trigger_85_interact.rel
                                          [ trigger_85_interact ]
C:/Users/magic/AppData/Local/Temp/_gbsbuild/obj/trigger_86_interact.rel
                                          [ trigger_86_interact ]
C:/Users/magic/AppData/Local/Temp/_gbsbuild/obj/trigger_87_interact.rel
                                          [ trigger_87_interact ]
C:/Users/magic/AppData/Local/Temp/_gbsbuild/obj/trigger_88_interact.rel
                                          [ trigger_88_interact ]
C:/Users/magic/AppData/Local/Temp/_gbsbuild/obj/trigger_89_interact.rel
                                          [ trigger_89_interact ]
C:/Users/magic/AppData/Local/Temp/_gbsbuild/obj/trigger_9_interact.rel
                                          [ trigger_9_interact ]
C:/Users/magic/AppData/Local/Temp/_gbsbuild/obj/trigger_90_interact.rel
                                          [ trigger_90_interact ]
C:/Users/magic/AppData/Local/Temp/_gbsbuild/obj/trigger_91_interact.rel
                                          [ trigger_91_interact ]
C:/Users/magic/AppData/Local/Temp/_gbsbuild/obj/trigger_92_interact.rel
                                          [ trigger_92_interact ]
C:/Users/magic/AppData/Local/Temp/_gbsbuild/obj/trigger_93_interact.rel
                                          [ trigger_93_interact ]
C:/Users/magic/AppData/Local/Temp/_gbsbuild/obj/trigger_94_interact.rel
                                          [ trigger_94_interact ]
C:/Users/magic/AppData/Local/Temp/_gbsbuild/obj/trigger_95_interact.rel
                                          [ trigger_95_interact ]
C:/Users/magic/AppData/Local/Temp/_gbsbuild/obj/trigger_96_interact.rel
                                          [ trigger_96_interact ]
C:/Users/magic/AppData/Local/Temp/_gbsbuild/obj/trigger_97_interact.rel
                                          [ trigger_97_interact ]
C:/Users/magic/AppData/Local/Temp/_gbsbuild/obj/trigger_98_interact.rel
                                          [ trigger_98_interact ]
C:/Users/magic/AppData/Local/Temp/_gbsbuild/obj/trigger_99_interact.rel
                                          [ trigger_99_interact ]
C:/Users/magic/AppData/Local/Temp/_gbsbuild/obj/main.rel
                                          [ main ]
C:/Users/magic/AppData/Local/Temp/_gbsbuild/obj/adventure.rel
                                          [ adventure ]
C:/Users/magic/AppData/Local/Temp/_gbsbuild/obj/logo.rel
                                          [ logo ]
C:/Users/magic/AppData/Local/Temp/_gbsbuild/obj/platform.rel
                                          [ platform ]
C:/Users/magic/AppData/Local/Temp/_gbsbuild/obj/pointnclick.rel
                                          [ pointnclick ]
C:/Users/magic/AppData/Local/Temp/_gbsbuild/obj/shmup.rel
                                          [ shmup ]
C:/Users/magic/AppData/Local/Temp/_gbsbuild/obj/states_ptrs.rel
                                          [  ]
C:/Users/magic/AppData/Local/Temp/_gbsbuild/obj/topdown.rel
                                          [ topdown ]


Libraries Linked                          [ object file ]

C:\Users\magic\AppData\Local\Temp/_gbstools/gbdk/lib/small/asxxxx/gb/gb.lib
                                          [ fill_rect_wi.o ]
C:\Users\magic\AppData\Local\Temp/_gbstools/gbdk/lib/small/asxxxx/gbz80/gbz80.lib
                                          [ rand.o ]
lib/hUGEDriver.lib                        [ hUGEDriver.obj.o ]
C:\Users\magic\AppData\Local\Temp/_gbstools/gbdk/lib/small/asxxxx/gb/gb.lib
                                          [ sfr.o ]
C:\Users\magic\AppData\Local\Temp/_gbstools/gbdk/lib/small/asxxxx/gb/gb.lib
                                          [ get_data.o ]
C:\Users\magic\AppData\Local\Temp/_gbstools/gbdk/lib/small/asxxxx/gb/gb.lib
                                          [ get_tile.o ]
C:\Users\magic\AppData\Local\Temp/_gbstools/gbdk/lib/small/asxxxx/gb/gb.lib
                                          [ cgb_palettes.o ]
C:\Users\magic\AppData\Local\Temp/_gbstools/gbdk/lib/small/asxxxx/gb/gb.lib
                                          [ metasprites_hide_spr.o ]
C:\Users\magic\AppData\Local\Temp/_gbstools/gbdk/lib/small/asxxxx/gbz80/gbz80.lib
                                          [ mul.o ]
C:\Users\magic\AppData\Local\Temp/_gbstools/gbdk/lib/small/asxxxx/gbz80/gbz80.lib
                                          [ abs.o ]
C:\Users\magic\AppData\Local\Temp/_gbstools/gbdk/lib/small/asxxxx/gb/gb.lib
                                          [ set_wi_t.o ]
C:\Users\magic\AppData\Local\Temp/_gbstools/gbdk/lib/small/asxxxx/gb/gb.lib
                                          [ set_data.o ]
C:\Users\magic\AppData\Local\Temp/_gbstools/gbdk/lib/small/asxxxx/gbz80/gbz80.lib
                                          [ reverse.o ]
C:\Users\magic\AppData\Local\Temp/_gbstools/gbdk/lib/small/asxxxx/gb/gb.lib
                                          [ far_ptr.o ]
C:\Users\magic\AppData\Local\Temp/_gbstools/gbdk/lib/small/asxxxx/gb/gb.lib
                                          [ sgb.o ]
C:\Users\magic\AppData\Local\Temp/_gbstools/gbdk/lib/small/asxxxx/gb/gb.lib
                                          [ lcd.o ]
C:\Users\magic\AppData\Local\Temp/_gbstools/gbdk/lib/small/asxxxx/gb/gb.lib
                                          [ fill_rect.o ]
C:\Users\magic\AppData\Local\Temp/_gbstools/gbdk/lib/small/asxxxx/gb/gb.lib
                                          [ cpy_data.o ]
C:\Users\magic\AppData\Local\Temp/_gbstools/gbdk/lib/small/asxxxx/gb/gb.lib
                                          [ fill_rect_bk.o ]
C:\Users\magic\AppData\Local\Temp/_gbstools/gbdk/lib/small/asxxxx/gb/gb.lib
                                          [ pad.o ]
C:\Users\magic\AppData\Local\Temp/_gbstools/gbdk/lib/small/asxxxx/gb/gb.lib
                                          [ metasprites.o ]
C:\Users\magic\AppData\Local\Temp/_gbstools/gbdk/lib/small/asxxxx/gbz80/gbz80.lib
                                          [ __sdcc_call_hl.o ]
C:\Users\magic\AppData\Local\Temp/_gbstools/gbdk/lib/small/asxxxx/gbz80/gbz80.lib
                                          [ _memcpy.o ]
C:\Users\magic\AppData\Local\Temp/_gbstools/gbdk/lib/small/asxxxx/gbz80/gbz80.lib
                                          [ _memset.o ]
C:\Users\magic\AppData\Local\Temp/_gbstools/gbdk/lib/small/asxxxx/gb/gb.lib
                                          [ set_xy_t.o ]
C:\Users\magic\AppData\Local\Temp/_gbstools/gbdk/lib/small/asxxxx/gb/gb.lib
                                          [ cgb.o ]
C:\Users\magic\AppData\Local\Temp/_gbstools/gbdk/lib/small/asxxxx/gbz80/gbz80.lib
                                          [ div.o ]
C:\Users\magic\AppData\Local\Temp/_gbstools/gbdk/lib/small/asxxxx/gb/gb.lib
                                          [ set_bk_t.o ]

ASxxxx Linker V03.00 + NoICE + sdld,  page 104.

User Base Address Definitions

_DATA=0xC0A0
_CODE=0x0200
ASxxxx Linker V03.00 + NoICE + sdld,  page 105.

User Global Definitions

.STACK=0xDF00
_shadow_OAM=0xC000
.refresh_OAM=0xFF80
__start_save=28

